(imatplotlib.font_manager
FontManager
p1
(dp2
S'afm_lookup_cache'
p3
(dp4
sS'ttflist'
p5
(lp6
ccopy_reg
_reconstructor
p7
(cmatplotlib.font_manager
FontEntry
p8
c__builtin__
object
p9
NtRp10
(dp11
S'style'
p12
S'normal'
p13
sS'name'
p14
S'cmex10'
p15
sS'weight'
p16
I400
sS'stretch'
p17
g13
sS'variant'
p18
g13
sS'fname'
p19
S'/System/Library/Frameworks/Python.framework/Versions/2.7/Extras/lib/python/matplotlib/mpl-data/fonts/ttf/cmex10.ttf'
p20
sS'size'
p21
S'scalable'
p22
sbag7
(g8
g9
NtRp23
(dp24
g12
S'oblique'
p25
sg14
S'Bitstream Vera Sans'
p26
sg16
I700
sg17
g13
sg18
g13
sg19
S'/System/Library/Frameworks/Python.framework/Versions/2.7/Extras/lib/python/matplotlib/mpl-data/fonts/ttf/VeraBI.ttf'
p27
sg21
g22
sbag7
(g8
g9
NtRp28
(dp29
g12
g13
sg14
S'STIXNonUnicode'
p30
sg16
I400
sg17
g13
sg18
g13
sg19
S'/System/Library/Frameworks/Python.framework/Versions/2.7/Extras/lib/python/matplotlib/mpl-data/fonts/ttf/STIXNonUni.ttf'
p31
sg21
g22
sbag7
(g8
g9
NtRp32
(dp33
g12
g13
sg14
S'STIXNonUnicode'
p34
sg16
I700
sg17
g13
sg18
g13
sg19
S'/System/Library/Frameworks/Python.framework/Versions/2.7/Extras/lib/python/matplotlib/mpl-data/fonts/ttf/STIXNonUniBol.ttf'
p35
sg21
g22
sbag7
(g8
g9
NtRp36
(dp37
g12
g13
sg14
S'Bitstream Vera Sans Mono'
p38
sg16
I700
sg17
g13
sg18
g13
sg19
S'/System/Library/Frameworks/Python.framework/Versions/2.7/Extras/lib/python/matplotlib/mpl-data/fonts/ttf/VeraMoBd.ttf'
p39
sg21
g22
sbag7
(g8
g9
NtRp40
(dp41
g12
g13
sg14
S'cmr10'
p42
sg16
I400
sg17
g13
sg18
g13
sg19
S'/System/Library/Frameworks/Python.framework/Versions/2.7/Extras/lib/python/matplotlib/mpl-data/fonts/ttf/cmr10.ttf'
p43
sg21
g22
sbag7
(g8
g9
NtRp44
(dp45
g12
g13
sg14
S'STIXGeneral'
p46
sg16
I400
sg17
g13
sg18
g13
sg19
S'/System/Library/Frameworks/Python.framework/Versions/2.7/Extras/lib/python/matplotlib/mpl-data/fonts/ttf/STIXGeneral.ttf'
p47
sg21
g22
sbag7
(g8
g9
NtRp48
(dp49
g12
g25
sg14
S'Bitstream Vera Sans Mono'
p50
sg16
I400
sg17
g13
sg18
g13
sg19
S'/System/Library/Frameworks/Python.framework/Versions/2.7/Extras/lib/python/matplotlib/mpl-data/fonts/ttf/VeraMoIt.ttf'
p51
sg21
g22
sbag7
(g8
g9
NtRp52
(dp53
g12
g13
sg14
S'Bitstream Vera Serif'
p54
sg16
I400
sg17
g13
sg18
g13
sg19
S'/System/Library/Frameworks/Python.framework/Versions/2.7/Extras/lib/python/matplotlib/mpl-data/fonts/ttf/VeraSe.ttf'
p55
sg21
g22
sbag7
(g8
g9
NtRp56
(dp57
g12
g13
sg14
S'STIXSizeFiveSym'
p58
sg16
I400
sg17
g13
sg18
g13
sg19
S'/System/Library/Frameworks/Python.framework/Versions/2.7/Extras/lib/python/matplotlib/mpl-data/fonts/ttf/STIXSizFiveSymReg.ttf'
p59
sg21
g22
sbag7
(g8
g9
NtRp60
(dp61
g12
g13
sg14
S'Bitstream Vera Sans Mono'
p62
sg16
I400
sg17
g13
sg18
g13
sg19
S'/System/Library/Frameworks/Python.framework/Versions/2.7/Extras/lib/python/matplotlib/mpl-data/fonts/ttf/VeraMono.ttf'
p63
sg21
g22
sbag7
(g8
g9
NtRp64
(dp65
g12
g25
sg14
S'Bitstream Vera Sans Mono'
p66
sg16
I700
sg17
g13
sg18
g13
sg19
S'/System/Library/Frameworks/Python.framework/Versions/2.7/Extras/lib/python/matplotlib/mpl-data/fonts/ttf/VeraMoBI.ttf'
p67
sg21
g22
sbag7
(g8
g9
NtRp68
(dp69
g12
g13
sg14
S'STIXGeneral'
p70
sg16
I700
sg17
g13
sg18
g13
sg19
S'/System/Library/Frameworks/Python.framework/Versions/2.7/Extras/lib/python/matplotlib/mpl-data/fonts/ttf/STIXGeneralBol.ttf'
p71
sg21
g22
sbag7
(g8
g9
NtRp72
(dp73
g12
S'italic'
p74
sg14
S'STIXGeneral'
p75
sg16
I400
sg17
g13
sg18
g13
sg19
S'/System/Library/Frameworks/Python.framework/Versions/2.7/Extras/lib/python/matplotlib/mpl-data/fonts/ttf/STIXGeneralItalic.ttf'
p76
sg21
g22
sbag7
(g8
g9
NtRp77
(dp78
g12
g13
sg14
S'STIXSizeFourSym'
p79
sg16
I400
sg17
g13
sg18
g13
sg19
S'/System/Library/Frameworks/Python.framework/Versions/2.7/Extras/lib/python/matplotlib/mpl-data/fonts/ttf/STIXSizFourSymReg.ttf'
p80
sg21
g22
sbag7
(g8
g9
NtRp81
(dp82
g12
g13
sg14
S'STIXSizeThreeSym'
p83
sg16
I700
sg17
g13
sg18
g13
sg19
S'/System/Library/Frameworks/Python.framework/Versions/2.7/Extras/lib/python/matplotlib/mpl-data/fonts/ttf/STIXSizThreeSymBol.ttf'
p84
sg21
g22
sbag7
(g8
g9
NtRp85
(dp86
g12
g13
sg14
S'STIXSizeOneSym'
p87
sg16
I700
sg17
g13
sg18
g13
sg19
S'/System/Library/Frameworks/Python.framework/Versions/2.7/Extras/lib/python/matplotlib/mpl-data/fonts/ttf/STIXSizOneSymBol.ttf'
p88
sg21
g22
sbag7
(g8
g9
NtRp89
(dp90
g12
g13
sg14
S'STIXSizeFourSym'
p91
sg16
I700
sg17
g13
sg18
g13
sg19
S'/System/Library/Frameworks/Python.framework/Versions/2.7/Extras/lib/python/matplotlib/mpl-data/fonts/ttf/STIXSizFourSymBol.ttf'
p92
sg21
g22
sbag7
(g8
g9
NtRp93
(dp94
g12
g13
sg14
S'Bitstream Vera Sans'
p95
sg16
I700
sg17
g13
sg18
g13
sg19
S'/System/Library/Frameworks/Python.framework/Versions/2.7/Extras/lib/python/matplotlib/mpl-data/fonts/ttf/VeraBd.ttf'
p96
sg21
g22
sbag7
(g8
g9
NtRp97
(dp98
g12
g13
sg14
S'cmsy10'
p99
sg16
I400
sg17
g13
sg18
g13
sg19
S'/System/Library/Frameworks/Python.framework/Versions/2.7/Extras/lib/python/matplotlib/mpl-data/fonts/ttf/cmsy10.ttf'
p100
sg21
g22
sbag7
(g8
g9
NtRp101
(dp102
g12
g13
sg14
S'STIXSizeTwoSym'
p103
sg16
I400
sg17
g13
sg18
g13
sg19
S'/System/Library/Frameworks/Python.framework/Versions/2.7/Extras/lib/python/matplotlib/mpl-data/fonts/ttf/STIXSizTwoSymReg.ttf'
p104
sg21
g22
sbag7
(g8
g9
NtRp105
(dp106
g12
g74
sg14
S'STIXNonUnicode'
p107
sg16
I700
sg17
g13
sg18
g13
sg19
S'/System/Library/Frameworks/Python.framework/Versions/2.7/Extras/lib/python/matplotlib/mpl-data/fonts/ttf/STIXNonUniBolIta.ttf'
p108
sg21
g22
sbag7
(g8
g9
NtRp109
(dp110
g12
g13
sg14
S'cmb10'
p111
sg16
I400
sg17
g13
sg18
g13
sg19
S'/System/Library/Frameworks/Python.framework/Versions/2.7/Extras/lib/python/matplotlib/mpl-data/fonts/ttf/cmb10.ttf'
p112
sg21
g22
sbag7
(g8
g9
NtRp113
(dp114
g12
g13
sg14
S'cmss10'
p115
sg16
I400
sg17
g13
sg18
g13
sg19
S'/System/Library/Frameworks/Python.framework/Versions/2.7/Extras/lib/python/matplotlib/mpl-data/fonts/ttf/cmss10.ttf'
p116
sg21
g22
sbag7
(g8
g9
NtRp117
(dp118
g12
g13
sg14
S'STIXSizeThreeSym'
p119
sg16
I400
sg17
g13
sg18
g13
sg19
S'/System/Library/Frameworks/Python.framework/Versions/2.7/Extras/lib/python/matplotlib/mpl-data/fonts/ttf/STIXSizThreeSymReg.ttf'
p120
sg21
g22
sbag7
(g8
g9
NtRp121
(dp122
g12
g13
sg14
S'STIXSizeOneSym'
p123
sg16
I400
sg17
g13
sg18
g13
sg19
S'/System/Library/Frameworks/Python.framework/Versions/2.7/Extras/lib/python/matplotlib/mpl-data/fonts/ttf/STIXSizOneSymReg.ttf'
p124
sg21
g22
sbag7
(g8
g9
NtRp125
(dp126
g12
g13
sg14
S'Bitstream Vera Sans'
p127
sg16
I400
sg17
g13
sg18
g13
sg19
S'/System/Library/Frameworks/Python.framework/Versions/2.7/Extras/lib/python/matplotlib/mpl-data/fonts/ttf/Vera.ttf'
p128
sg21
g22
sbag7
(g8
g9
NtRp129
(dp130
g12
g13
sg14
S'cmmi10'
p131
sg16
I400
sg17
g13
sg18
g13
sg19
S'/System/Library/Frameworks/Python.framework/Versions/2.7/Extras/lib/python/matplotlib/mpl-data/fonts/ttf/cmmi10.ttf'
p132
sg21
g22
sbag7
(g8
g9
NtRp133
(dp134
g12
g13
sg14
S'Bitstream Vera Serif'
p135
sg16
I700
sg17
g13
sg18
g13
sg19
S'/System/Library/Frameworks/Python.framework/Versions/2.7/Extras/lib/python/matplotlib/mpl-data/fonts/ttf/VeraSeBd.ttf'
p136
sg21
g22
sbag7
(g8
g9
NtRp137
(dp138
g12
g25
sg14
S'Bitstream Vera Sans'
p139
sg16
I400
sg17
g13
sg18
g13
sg19
S'/System/Library/Frameworks/Python.framework/Versions/2.7/Extras/lib/python/matplotlib/mpl-data/fonts/ttf/VeraIt.ttf'
p140
sg21
g22
sbag7
(g8
g9
NtRp141
(dp142
g12
g13
sg14
S'STIXSizeTwoSym'
p143
sg16
I700
sg17
g13
sg18
g13
sg19
S'/System/Library/Frameworks/Python.framework/Versions/2.7/Extras/lib/python/matplotlib/mpl-data/fonts/ttf/STIXSizTwoSymBol.ttf'
p144
sg21
g22
sbag7
(g8
g9
NtRp145
(dp146
g12
g74
sg14
S'STIXNonUnicode'
p147
sg16
I400
sg17
g13
sg18
g13
sg19
S'/System/Library/Frameworks/Python.framework/Versions/2.7/Extras/lib/python/matplotlib/mpl-data/fonts/ttf/STIXNonUniIta.ttf'
p148
sg21
g22
sbag7
(g8
g9
NtRp149
(dp150
g12
g13
sg14
S'cmtt10'
p151
sg16
I400
sg17
g13
sg18
g13
sg19
S'/System/Library/Frameworks/Python.framework/Versions/2.7/Extras/lib/python/matplotlib/mpl-data/fonts/ttf/cmtt10.ttf'
p152
sg21
g22
sbag7
(g8
g9
NtRp153
(dp154
g12
g74
sg14
S'STIXGeneral'
p155
sg16
I700
sg17
g13
sg18
g13
sg19
S'/System/Library/Frameworks/Python.framework/Versions/2.7/Extras/lib/python/matplotlib/mpl-data/fonts/ttf/STIXGeneralBolIta.ttf'
p156
sg21
g22
sbag7
(g8
g9
NtRp157
(dp158
g12
g13
sg14
S'Akkurat Pro'
p159
sg16
I700
sg17
g13
sg18
g13
sg19
S'/Users/adrianwan/Library/Fonts/AkkuratPro-Bold.otf'
p160
sg21
g22
sbag7
(g8
g9
NtRp161
(dp162
g12
g74
sg14
S'Open Sans'
p163
sg16
I400
sg17
g13
sg18
g13
sg19
S'/Library/Fonts/OpenSans-Italic.ttf'
p164
sg21
g22
sbag7
(g8
g9
NtRp165
(dp166
g12
g13
sg14
S'STHeiti'
p167
sg16
I400
sg17
g13
sg18
g13
sg19
S'/Library/Fonts/\xe5\x8d\x8e\xe6\x96\x87\xe7\xbb\x86\xe9\xbb\x91.ttf'
p168
sg21
g22
sbag7
(g8
g9
NtRp169
(dp170
g12
g13
sg14
S'Hoefler Text'
p171
sg16
I400
sg17
g13
sg18
g13
sg19
S'/Library/Fonts/Hoefler Text Ornaments.ttf'
p172
sg21
g22
sbag7
(g8
g9
NtRp173
(dp174
g12
g74
sg14
S'Roboto'
p175
sg16
I400
sg17
g13
sg18
g13
sg19
S'/Library/Fonts/Roboto-Italic.ttf'
p176
sg21
g22
sbag7
(g8
g9
NtRp177
(dp178
g12
g13
sg14
S'Times New Roman'
p179
sg16
I500
sg17
g13
sg18
g13
sg19
S'/Library/Fonts/Times New Roman.ttf'
p180
sg21
g22
sbag7
(g8
g9
NtRp181
(dp182
g12
g13
sg14
S'Roboto'
p183
sg16
I400
sg17
g13
sg18
g13
sg19
S'/Library/Fonts/Roboto-Medium.ttf'
p184
sg21
g22
sbag7
(g8
g9
NtRp185
(dp186
g12
g13
sg14
S'Osaka'
p187
sg16
I400
sg17
g13
sg18
g13
sg19
S'/Library/Fonts/Osaka.ttf'
p188
sg21
g22
sbag7
(g8
g9
NtRp189
(dp190
g12
g13
sg14
S'Verdana'
p191
sg16
I700
sg17
g13
sg18
g13
sg19
S'/Library/Fonts/Verdana Bold.ttf'
p192
sg21
g22
sbag7
(g8
g9
NtRp193
(dp194
g12
g13
sg14
S'System Font'
p195
sg16
I400
sg17
g13
sg18
g13
sg19
S'/System/Library/Fonts/SFNSDisplay-Bold.otf'
p196
sg21
g22
sbag7
(g8
g9
NtRp197
(dp198
g12
g13
sg14
S'LiHei Pro'
p199
sg16
I400
sg17
g13
sg18
g13
sg19
S'/Library/Fonts/\xe5\x84\xb7\xe9\xbb\x91 Pro.ttf'
p200
sg21
g22
sbag7
(g8
g9
NtRp201
(dp202
g12
g13
sg14
S'Arial Unicode MS'
p203
sg16
I400
sg17
g13
sg18
g13
sg19
S'/Library/Fonts/Arial Unicode.ttf'
p204
sg21
g22
sbag7
(g8
g9
NtRp205
(dp206
g12
g13
sg14
S'Meslo LG L DZ for Powerline'
p207
sg16
I400
sg17
g13
sg18
g13
sg19
S'/Users/adrianwan/Library/Fonts/Meslo LG L DZ Regular for Powerline.otf'
p208
sg21
g22
sbag7
(g8
g9
NtRp209
(dp210
g12
g13
sg14
S'STIXSizeThreeSym'
p211
sg16
I400
sg17
g13
sg18
g13
sg19
S'/Library/Fonts/STIXSizThreeSymReg.otf'
p212
sg21
g22
sbag7
(g8
g9
NtRp213
(dp214
g12
g13
sg14
S'Source Code Pro for Powerline'
p215
sg16
I900
sg17
g13
sg18
g13
sg19
S'/Users/adrianwan/Library/Fonts/Sauce Code Powerline Black.otf'
p216
sg21
g22
sbag7
(g8
g9
NtRp217
(dp218
g12
g13
sg14
S'DIN Condensed'
p219
sg16
I700
sg17
S'condensed'
p220
sg18
g13
sg19
S'/Library/Fonts/DIN Condensed Bold.ttf'
p221
sg21
g22
sbag7
(g8
g9
NtRp222
(dp223
g12
g13
sg14
S'Droid Sans Mono Dotted for Powerline'
p224
sg16
I400
sg17
g13
sg18
g13
sg19
S'/Users/adrianwan/Library/Fonts/Droid Sans Mono Dotted for Powerline.ttf'
p225
sg21
g22
sbag7
(g8
g9
NtRp226
(dp227
g12
g13
sg14
S'Ayuthaya'
p228
sg16
I400
sg17
g13
sg18
g13
sg19
S'/Library/Fonts/Ayuthaya.ttf'
p229
sg21
g22
sbag7
(g8
g9
NtRp230
(dp231
g12
g13
sg14
S'System Font'
p232
sg16
I400
sg17
g13
sg18
g13
sg19
S'/System/Library/Fonts/SFNSText-HeavyItalic.otf'
p233
sg21
g22
sbag7
(g8
g9
NtRp234
(dp235
g12
g25
sg14
S'Hack'
p236
sg16
I700
sg17
g13
sg18
g13
sg19
S'/Users/adrianwan/Library/Fonts/Hack-BoldOblique.ttf'
p237
sg21
g22
sbag7
(g8
g9
NtRp238
(dp239
g12
g13
sg14
S'Arial'
p240
sg16
I400
sg17
g13
sg18
g13
sg19
S'/Library/Fonts/Arial.ttf'
p241
sg21
g22
sbag7
(g8
g9
NtRp242
(dp243
g12
g13
sg14
S'Liberation Mono for Powerline'
p244
sg16
I700
sg17
g13
sg18
g13
sg19
S'/Users/adrianwan/Library/Fonts/Literation Mono Powerline Bold.ttf'
p245
sg21
g22
sbag7
(g8
g9
NtRp246
(dp247
g12
g13
sg14
S'AppleGothic'
p248
sg16
I400
sg17
g13
sg18
g13
sg19
S'/Library/Fonts/AppleGothic.ttf'
p249
sg21
g22
sbag7
(g8
g9
NtRp250
(dp251
g12
g13
sg14
S'Source Code Pro for Powerline'
p252
sg16
I200
sg17
g13
sg18
g13
sg19
S'/Users/adrianwan/Library/Fonts/Sauce Code Powerline Light.otf'
p253
sg21
g22
sbag7
(g8
g9
NtRp254
(dp255
g12
g13
sg14
S'YuGothic'
p256
sg16
I500
sg17
g13
sg18
g13
sg19
S'/Library/Fonts/Yu Gothic Medium.otf'
p257
sg21
g22
sbag7
(g8
g9
NtRp258
(dp259
g12
g13
sg14
S'Fira Mono for Powerline'
p260
sg16
I400
sg17
g13
sg18
g13
sg19
S'/Users/adrianwan/Library/Fonts/FuraMono-Regular Powerline.otf'
p261
sg21
g22
sbag7
(g8
g9
NtRp262
(dp263
g12
g13
sg14
S'Arial Narrow'
p264
sg16
I400
sg17
g220
sg18
g13
sg19
S'/Library/Fonts/Arial Narrow.ttf'
p265
sg21
g22
sbag7
(g8
g9
NtRp266
(dp267
g12
g13
sg14
S'Meslo LG M DZ for Powerline'
p268
sg16
I400
sg17
g13
sg18
g13
sg19
S'/Users/adrianwan/Library/Fonts/Meslo LG M DZ Regular for Powerline.otf'
p269
sg21
g22
sbag7
(g8
g9
NtRp270
(dp271
g12
g74
sg14
S'Roboto'
p272
sg16
I400
sg17
g13
sg18
g13
sg19
S'/Library/Fonts/Roboto-LightItalic.ttf'
p273
sg21
g22
sbag7
(g8
g9
NtRp274
(dp275
g12
g13
sg14
S'AppleMyungjo'
p276
sg16
I400
sg17
g13
sg18
g13
sg19
S'/Library/Fonts/AppleMyungjo.ttf'
p277
sg21
g22
sbag7
(g8
g9
NtRp278
(dp279
g12
g13
sg14
S'Meslo LG S for Powerline'
p280
sg16
I400
sg17
g13
sg18
g13
sg19
S'/Users/adrianwan/Library/Fonts/Meslo LG S Regular for Powerline.otf'
p281
sg21
g22
sbag7
(g8
g9
NtRp282
(dp283
g12
g13
sg14
S'Mishafi Gold'
p284
sg16
I400
sg17
g13
sg18
g13
sg19
S'/Library/Fonts/Mishafi Gold.ttf'
p285
sg21
g22
sbag7
(g8
g9
NtRp286
(dp287
g12
g74
sg14
S'Roboto Condensed'
p288
sg16
I400
sg17
g13
sg18
g13
sg19
S'/Library/Fonts/RobotoCondensed-LightItalic.ttf'
p289
sg21
g22
sbag7
(g8
g9
NtRp290
(dp291
g12
g13
sg14
S'Akkurat Pro'
p292
sg16
I200
sg17
g13
sg18
g13
sg19
S'/Users/adrianwan/Library/Fonts/AkkuratPro-Light.otf'
p293
sg21
g22
sbag7
(g8
g9
NtRp294
(dp295
g12
g13
sg14
S'Zapf Dingbats'
p296
sg16
I400
sg17
g13
sg18
g13
sg19
S'/System/Library/Fonts/ZapfDingbats.ttf'
p297
sg21
g22
sbag7
(g8
g9
NtRp298
(dp299
g12
g74
sg14
S'Roboto'
p300
sg16
I400
sg17
g13
sg18
g13
sg19
S'/Library/Fonts/Roboto-ThinItalic.ttf'
p301
sg21
g22
sbag7
(g8
g9
NtRp302
(dp303
g12
g13
sg14
S'STIXIntegralsD'
p304
sg16
I700
sg17
g13
sg18
g13
sg19
S'/Library/Fonts/STIXIntDBol.otf'
p305
sg21
g22
sbag7
(g8
g9
NtRp306
(dp307
g12
g13
sg14
S'System Font'
p308
sg16
I400
sg17
g13
sg18
g13
sg19
S'/System/Library/Fonts/SFNSText-BoldItalicG2.otf'
p309
sg21
g22
sbag7
(g8
g9
NtRp310
(dp311
g12
g13
sg14
S'System Font'
p312
sg16
I400
sg17
g13
sg18
g13
sg19
S'/System/Library/Fonts/SFNSDisplay-Semibold.otf'
p313
sg21
g22
sbag7
(g8
g9
NtRp314
(dp315
g12
g13
sg14
S'DIN Alternate'
p316
sg16
I700
sg17
g13
sg18
g13
sg19
S'/Library/Fonts/DIN Alternate Bold.ttf'
p317
sg21
g22
sbag7
(g8
g9
NtRp318
(dp319
g12
g13
sg14
S'Source Code Pro for Powerline'
p320
sg16
I700
sg17
g13
sg18
g13
sg19
S'/Users/adrianwan/Library/Fonts/Sauce Code Powerline Semibold.otf'
p321
sg21
g22
sbag7
(g8
g9
NtRp322
(dp323
g12
g13
sg14
S'STIXSizeThreeSym'
p324
sg16
I700
sg17
g13
sg18
g13
sg19
S'/Library/Fonts/STIXSizThreeSymBol.otf'
p325
sg21
g22
sbag7
(g8
g9
NtRp326
(dp327
g12
g13
sg14
S'Roboto Slab'
p328
sg16
I400
sg17
g13
sg18
g13
sg19
S'/Library/Fonts/RobotoSlab-Thin.ttf'
p329
sg21
g22
sbag7
(g8
g9
NtRp330
(dp331
g12
g13
sg14
S'Courier New'
p332
sg16
I400
sg17
g13
sg18
g13
sg19
S'/Library/Fonts/Courier New.ttf'
p333
sg21
g22
sbag7
(g8
g9
NtRp334
(dp335
g12
g74
sg14
S'Arial Narrow'
p336
sg16
I700
sg17
g220
sg18
g13
sg19
S'/Library/Fonts/Arial Narrow Bold Italic.ttf'
p337
sg21
g22
sbag7
(g8
g9
NtRp338
(dp339
g12
g13
sg14
S'Luminari'
p340
sg16
I400
sg17
g13
sg18
g13
sg19
S'/Library/Fonts/Luminari.ttf'
p341
sg21
g22
sbag7
(g8
g9
NtRp342
(dp343
g12
g13
sg14
S'Zapfino'
p344
sg16
I400
sg17
g13
sg18
g13
sg19
S'/Library/Fonts/Zapfino.ttf'
p345
sg21
g22
sbag7
(g8
g9
NtRp346
(dp347
g12
g13
sg14
S'DejaVu Sans Mono for Powerline'
p348
sg16
I400
sg17
g13
sg18
g13
sg19
S'/Users/adrianwan/Library/Fonts/DejaVu Sans Mono for Powerline.ttf'
p349
sg21
g22
sbag7
(g8
g9
NtRp350
(dp351
g12
g13
sg14
S'Arial Narrow'
p352
sg16
I700
sg17
g220
sg18
g13
sg19
S'/Library/Fonts/Arial Narrow Bold.ttf'
p353
sg21
g22
sbag7
(g8
g9
NtRp354
(dp355
g12
g74
sg14
S'Times New Roman'
p356
sg16
I500
sg17
g13
sg18
g13
sg19
S'/Library/Fonts/Times New Roman Italic.ttf'
p357
sg21
g22
sbag7
(g8
g9
NtRp358
(dp359
g12
g13
sg14
S'Krungthep'
p360
sg16
I400
sg17
g13
sg18
g13
sg19
S'/Library/Fonts/Krungthep.ttf'
p361
sg21
g22
sbag7
(g8
g9
NtRp362
(dp363
g12
g74
sg14
S'Roboto Condensed'
p364
sg16
I700
sg17
g13
sg18
g13
sg19
S'/Library/Fonts/RobotoCondensed-BoldItalic.ttf'
p365
sg21
g22
sbag7
(g8
g9
NtRp366
(dp367
g12
g13
sg14
S'Inconsolata for Powerline'
p368
sg16
I400
sg17
g13
sg18
g13
sg19
S'/Users/adrianwan/Library/Fonts/Inconsolata for Powerline.otf'
p369
sg21
g22
sbag7
(g8
g9
NtRp370
(dp371
g12
g13
sg14
S'Georgia'
p372
sg16
I400
sg17
g13
sg18
g13
sg19
S'/Library/Fonts/Georgia.ttf'
p373
sg21
g22
sbag7
(g8
g9
NtRp374
(dp375
g12
g13
sg14
S'System Font'
p376
sg16
I400
sg17
g13
sg18
g13
sg19
S'/System/Library/Fonts/SFNSText-Medium.otf'
p377
sg21
g22
sbag7
(g8
g9
NtRp378
(dp379
g12
g13
sg14
S'STIXIntegralsSm'
p380
sg16
I700
sg17
g13
sg18
g13
sg19
S'/Library/Fonts/STIXIntSmBol.otf'
p381
sg21
g22
sbag7
(g8
g9
NtRp382
(dp383
g12
g13
sg14
S'Diwan Thuluth'
p384
sg16
I400
sg17
g13
sg18
g13
sg19
S'/Library/Fonts/Diwan Thuluth.ttf'
p385
sg21
g22
sbag7
(g8
g9
NtRp386
(dp387
g12
g13
sg14
S'Trebuchet MS'
p388
sg16
I700
sg17
g13
sg18
g13
sg19
S'/Library/Fonts/Trebuchet MS Bold.ttf'
p389
sg21
g22
sbag7
(g8
g9
NtRp390
(dp391
g12
g13
sg14
S'DejaVu Sans Mono for Powerline'
p392
sg16
I700
sg17
g13
sg18
g13
sg19
S'/Users/adrianwan/Library/Fonts/DejaVu Sans Mono Bold for Powerline.ttf'
p393
sg21
g22
sbag7
(g8
g9
NtRp394
(dp395
g12
g74
sg14
S'Roboto'
p396
sg16
I700
sg17
g13
sg18
g13
sg19
S'/Library/Fonts/Roboto-BlackItalic.ttf'
p397
sg21
g22
sbag7
(g8
g9
NtRp398
(dp399
g12
g13
sg14
S'System Font'
p400
sg16
I400
sg17
g13
sg18
g13
sg19
S'/System/Library/Fonts/SFNSText-BoldG1.otf'
p401
sg21
g22
sbag7
(g8
g9
NtRp402
(dp403
g12
g13
sg14
S'Fira Mono Medium for Powerline'
p404
sg16
I500
sg17
g13
sg18
g13
sg19
S'/Users/adrianwan/Library/Fonts/FuraMono-Medium Powerline.otf'
p405
sg21
g22
sbag7
(g8
g9
NtRp406
(dp407
g12
g13
sg14
S'Roboto Slab'
p408
sg16
I200
sg17
g13
sg18
g13
sg19
S'/Library/Fonts/RobotoSlab-Light.ttf'
p409
sg21
g22
sbag7
(g8
g9
NtRp410
(dp411
g12
g13
sg14
S'Bradley Hand'
p412
sg16
I700
sg17
g13
sg18
g13
sg19
S'/Library/Fonts/Bradley Hand Bold.ttf'
p413
sg21
g22
sbag7
(g8
g9
NtRp414
(dp415
g12
g13
sg14
S'Roboto Mono'
p416
sg16
I700
sg17
g13
sg18
g13
sg19
S'/Library/Fonts/RobotoMono-Bold.ttf'
p417
sg21
g22
sbag7
(g8
g9
NtRp418
(dp419
g12
g13
sg14
S'System Font'
p420
sg16
I400
sg17
g13
sg18
g13
sg19
S'/System/Library/Fonts/SFNSText-SemiboldItalic.otf'
p421
sg21
g22
sbag7
(g8
g9
NtRp422
(dp423
g12
g74
sg14
S'Times New Roman'
p424
sg16
I700
sg17
g13
sg18
g13
sg19
S'/Library/Fonts/Times New Roman Bold Italic.ttf'
p425
sg21
g22
sbag7
(g8
g9
NtRp426
(dp427
g12
g13
sg14
S'Liberation Mono for Powerline'
p428
sg16
I400
sg17
g13
sg18
g13
sg19
S'/Users/adrianwan/Library/Fonts/Literation Mono Powerline.ttf'
p429
sg21
g22
sbag7
(g8
g9
NtRp430
(dp431
g12
g74
sg14
S'Arial Narrow'
p432
sg16
I400
sg17
g220
sg18
g13
sg19
S'/Library/Fonts/Arial Narrow Italic.ttf'
p433
sg21
g22
sbag7
(g8
g9
NtRp434
(dp435
g12
g13
sg14
S'Meslo LG L for Powerline'
p436
sg16
I400
sg17
g13
sg18
g13
sg19
S'/Users/adrianwan/Library/Fonts/Meslo LG L Regular for Powerline.otf'
p437
sg21
g22
sbag7
(g8
g9
NtRp438
(dp439
g12
g13
sg14
S'Weibei TC'
p440
sg16
I700
sg17
g13
sg18
g13
sg19
S'/Library/Fonts/WeibeiTC-Bold.otf'
p441
sg21
g22
sbag7
(g8
g9
NtRp442
(dp443
g12
g74
sg14
S'Akkurat Pro'
p444
sg16
I700
sg17
g13
sg18
g13
sg19
S'/Users/adrianwan/Library/Fonts/AkkuratPro-BoldItalic.otf'
p445
sg21
g22
sbag7
(g8
g9
NtRp446
(dp447
g12
g13
sg14
S'System Font'
p448
sg16
I400
sg17
g13
sg18
g13
sg19
S'/System/Library/Fonts/SFNSText-RegularItalicG3.otf'
p449
sg21
g22
sbag7
(g8
g9
NtRp450
(dp451
g12
g74
sg14
S'Anonymous Pro for Powerline'
p452
sg16
I400
sg17
g13
sg18
g13
sg19
S'/Users/adrianwan/Library/Fonts/Anonymice Powerline Italic.ttf'
p453
sg21
g22
sbag7
(g8
g9
NtRp454
(dp455
g12
g13
sg14
S'PilGi'
p456
sg16
I400
sg17
g13
sg18
g13
sg19
S'/Library/Fonts/Pilgiche.ttf'
p457
sg21
g22
sbag7
(g8
g9
NtRp458
(dp459
g12
g13
sg14
S'Apple Braille'
p460
sg16
I400
sg17
g13
sg18
g13
sg19
S'/System/Library/Fonts/Apple Braille Outline 8 Dot.ttf'
p461
sg21
g22
sbag7
(g8
g9
NtRp462
(dp463
g12
g74
sg14
S'Roboto Condensed'
p464
sg16
I400
sg17
g13
sg18
g13
sg19
S'/Library/Fonts/RobotoCondensed-Italic.ttf'
p465
sg21
g22
sbag7
(g8
g9
NtRp466
(dp467
g12
g13
sg14
S'System Font'
p468
sg16
I400
sg17
g13
sg18
g13
sg19
S'/System/Library/Fonts/SFNSText-RegularItalicG2.otf'
p469
sg21
g22
sbag7
(g8
g9
NtRp470
(dp471
g12
g13
sg14
S'Plantagenet Cherokee'
p472
sg16
I400
sg17
g13
sg18
g13
sg19
S'/Library/Fonts/PlantagenetCherokee.ttf'
p473
sg21
g22
sbag7
(g8
g9
NtRp474
(dp475
g12
g13
sg14
S'System Font'
p476
sg16
I400
sg17
g13
sg18
g13
sg19
S'/System/Library/Fonts/SFNSText-BoldItalicG3.otf'
p477
sg21
g22
sbag7
(g8
g9
NtRp478
(dp479
g12
g13
sg14
S'System Font'
p480
sg16
I400
sg17
g13
sg18
g13
sg19
S'/System/Library/Fonts/SFNSText-RegularItalic.otf'
p481
sg21
g22
sbag7
(g8
g9
NtRp482
(dp483
g12
g25
sg14
S'DejaVu Sans Mono for Powerline'
p484
sg16
I700
sg17
g13
sg18
g13
sg19
S'/Users/adrianwan/Library/Fonts/DejaVu Sans Mono Bold Oblique for Powerline.ttf'
p485
sg21
g22
sbag7
(g8
g9
NtRp486
(dp487
g12
g13
sg14
S'Times New Roman'
p488
sg16
I700
sg17
g13
sg18
g13
sg19
S'/Library/Fonts/Times New Roman Bold.ttf'
p489
sg21
g22
sbag7
(g8
g9
NtRp490
(dp491
g12
g13
sg14
S'Anonymous Pro for Powerline'
p492
sg16
I700
sg17
g13
sg18
g13
sg19
S'/Users/adrianwan/Library/Fonts/Anonymice Powerline Bold.ttf'
p493
sg21
g22
sbag7
(g8
g9
NtRp494
(dp495
g12
g74
sg14
S'Arial'
p496
sg16
I700
sg17
g13
sg18
g13
sg19
S'/Library/Fonts/Arial Bold Italic.ttf'
p497
sg21
g22
sbag7
(g8
g9
NtRp498
(dp499
g12
g13
sg14
S'SignPainter'
p500
sg16
I400
sg17
g13
sg18
g13
sg19
S'/Library/Fonts/SignPainter.otf'
p501
sg21
g22
sbag7
(g8
g9
NtRp502
(dp503
g12
g13
sg14
S'Source Code Pro for Powerline'
p504
sg16
I400
sg17
g13
sg18
g13
sg19
S'/Users/adrianwan/Library/Fonts/Sauce Code Powerline Regular.otf'
p505
sg21
g22
sbag7
(g8
g9
NtRp506
(dp507
g12
g13
sg14
S'STIXVariants'
p508
sg16
I400
sg17
g13
sg18
g13
sg19
S'/Library/Fonts/STIXVar.otf'
p509
sg21
g22
sbag7
(g8
g9
NtRp510
(dp511
g12
g13
sg14
S'Mishafi'
p512
sg16
I400
sg17
g13
sg18
g13
sg19
S'/Library/Fonts/Mishafi.ttf'
p513
sg21
g22
sbag7
(g8
g9
NtRp514
(dp515
g12
g13
sg14
S'STIXVariants'
p516
sg16
I700
sg17
g13
sg18
g13
sg19
S'/Library/Fonts/STIXVarBol.otf'
p517
sg21
g22
sbag7
(g8
g9
NtRp518
(dp519
g12
g13
sg14
S'System Font'
p520
sg16
I400
sg17
g13
sg18
g13
sg19
S'/System/Library/Fonts/SFNSText-BoldItalic.otf'
p521
sg21
g22
sbag7
(g8
g9
NtRp522
(dp523
g12
g13
sg14
S'System Font'
p524
sg16
I400
sg17
g13
sg18
g13
sg19
S'/System/Library/Fonts/SFNSText-BoldItalicG1.otf'
p525
sg21
g22
sbag7
(g8
g9
NtRp526
(dp527
g12
g13
sg14
S'System Font'
p528
sg16
I400
sg17
g13
sg18
g13
sg19
S'/System/Library/Fonts/SFNSDisplay-Thin.otf'
p529
sg21
g22
sbag7
(g8
g9
NtRp530
(dp531
g12
g13
sg14
S'System Font'
p532
sg16
I400
sg17
g13
sg18
g13
sg19
S'/System/Library/Fonts/SFNSText-RegularG2.otf'
p533
sg21
g22
sbag7
(g8
g9
NtRp534
(dp535
g12
g13
sg14
S'Roboto'
p536
sg16
I700
sg17
g13
sg18
g13
sg19
S'/Library/Fonts/Roboto-Black.ttf'
p537
sg21
g22
sbag7
(g8
g9
NtRp538
(dp539
g12
g13
sg14
S'monofur for Powerline'
p540
sg16
I400
sg17
g13
sg18
g13
sg19
S'/Users/adrianwan/Library/Fonts/Monofur for Powerline.ttf'
p541
sg21
g22
sbag7
(g8
g9
NtRp542
(dp543
g12
g13
sg14
S'Hack'
p544
sg16
I400
sg17
g13
sg18
g13
sg19
S'/Users/adrianwan/Library/Fonts/Hack-Regular.ttf'
p545
sg21
g22
sbag7
(g8
g9
NtRp546
(dp547
g12
g13
sg14
S'System Font'
p548
sg16
I400
sg17
g13
sg18
g13
sg19
S'/System/Library/Fonts/SFNSText-Regular.otf'
p549
sg21
g22
sbag7
(g8
g9
NtRp550
(dp551
g12
g13
sg14
S'STIXIntegralsUp'
p552
sg16
I700
sg17
g13
sg18
g13
sg19
S'/Library/Fonts/STIXIntUpBol.otf'
p553
sg21
g22
sbag7
(g8
g9
NtRp554
(dp555
g12
g13
sg14
S'Wawati TC'
p556
sg16
I400
sg17
g13
sg18
g13
sg19
S'/Library/Fonts/WawaTC-Regular.otf'
p557
sg21
g22
sbag7
(g8
g9
NtRp558
(dp559
g12
g13
sg14
S'Skia'
p560
sg16
I400
sg17
g13
sg18
g13
sg19
S'/Library/Fonts/Skia.ttf'
p561
sg21
g22
sbag7
(g8
g9
NtRp562
(dp563
g12
g13
sg14
S'STIXSizeFiveSym'
p564
sg16
I400
sg17
g13
sg18
g13
sg19
S'/Library/Fonts/STIXSizFiveSymReg.otf'
p565
sg21
g22
sbag7
(g8
g9
NtRp566
(dp567
g12
g13
sg14
S'Verdana'
p568
sg16
I400
sg17
g13
sg18
g13
sg19
S'/Library/Fonts/Verdana.ttf'
p569
sg21
g22
sbag7
(g8
g9
NtRp570
(dp571
g12
g13
sg14
S'Farisi'
p572
sg16
I400
sg17
g13
sg18
g13
sg19
S'/Library/Fonts/Farisi.ttf'
p573
sg21
g22
sbag7
(g8
g9
NtRp574
(dp575
g12
g13
sg14
S'Roboto Slab'
p576
sg16
I700
sg17
g13
sg18
g13
sg19
S'/Library/Fonts/RobotoSlab-Bold.ttf'
p577
sg21
g22
sbag7
(g8
g9
NtRp578
(dp579
g12
g25
sg14
S'DejaVu Sans Mono for Powerline'
p580
sg16
I400
sg17
g13
sg18
g13
sg19
S'/Users/adrianwan/Library/Fonts/DejaVu Sans Mono Oblique for Powerline.ttf'
p581
sg21
g22
sbag7
(g8
g9
NtRp582
(dp583
g12
g13
sg14
S'Gurmukhi MT'
p584
sg16
I400
sg17
g13
sg18
g13
sg19
S'/Library/Fonts/Gurmukhi.ttf'
p585
sg21
g22
sbag7
(g8
g9
NtRp586
(dp587
g12
g13
sg14
S'Bodoni 72 Smallcaps'
p588
sg16
I400
sg17
g13
sg18
g13
sg19
S'/Library/Fonts/Bodoni 72 Smallcaps Book.ttf'
p589
sg21
g22
sbag7
(g8
g9
NtRp590
(dp591
g12
g13
sg14
S'YuGothic'
p592
sg16
I700
sg17
g13
sg18
g13
sg19
S'/Library/Fonts/Yu Gothic Bold.otf'
p593
sg21
g22
sbag7
(g8
g9
NtRp594
(dp595
g12
g13
sg14
S'System Font'
p596
sg16
I400
sg17
g13
sg18
g13
sg19
S'/System/Library/Fonts/SFNSText-RegularItalicG1.otf'
p597
sg21
g22
sbag7
(g8
g9
NtRp598
(dp599
g12
g13
sg14
S'Apple Color Emoji'
p600
sg16
I400
sg17
g13
sg18
g13
sg19
S'/System/Library/Fonts/Apple Color Emoji.ttf'
p601
sg21
g22
sbag7
(g8
g9
NtRp602
(dp603
g12
g13
sg14
S'STIXSizeTwoSym'
p604
sg16
I400
sg17
g13
sg18
g13
sg19
S'/Library/Fonts/STIXSizTwoSymReg.otf'
p605
sg21
g22
sbag7
(g8
g9
NtRp606
(dp607
g12
g13
sg14
S'monofur for Powerline'
p608
sg16
I700
sg17
g13
sg18
g13
sg19
S'/Users/adrianwan/Library/Fonts/Monofur Bold for Powerline.ttf'
p609
sg21
g22
sbag7
(g8
g9
NtRp610
(dp611
g12
g13
sg14
S'Open Sans'
p612
sg16
I700
sg17
g13
sg18
g13
sg19
S'/Library/Fonts/OpenSans-ExtraBold.ttf'
p613
sg21
g22
sbag7
(g8
g9
NtRp614
(dp615
g12
g74
sg14
S'Open Sans'
p616
sg16
I200
sg17
g13
sg18
g13
sg19
S'/Library/Fonts/OpenSans-LightItalic.ttf'
p617
sg21
g22
sbag7
(g8
g9
NtRp618
(dp619
g12
g13
sg14
S'STFangsong'
p620
sg16
I400
sg17
g13
sg18
g13
sg19
S'/Library/Fonts/\xe5\x8d\x8e\xe6\x96\x87\xe4\xbb\xbf\xe5\xae\x8b.ttf'
p621
sg21
g22
sbag7
(g8
g9
NtRp622
(dp623
g12
g74
sg14
S'Arial'
p624
sg16
I400
sg17
g13
sg18
g13
sg19
S'/Library/Fonts/Arial Italic.ttf'
p625
sg21
g22
sbag7
(g8
g9
NtRp626
(dp627
g12
g13
sg14
S'LiSong Pro'
p628
sg16
I400
sg17
g13
sg18
g13
sg19
S'/Library/Fonts/\xe5\x84\xb7\xe5\xae\x8b Pro.ttf'
p629
sg21
g22
sbag7
(g8
g9
NtRp630
(dp631
g12
g13
sg14
S'Roboto Mono'
p632
sg16
I400
sg17
g13
sg18
g13
sg19
S'/Library/Fonts/RobotoMono-Regular.ttf'
p633
sg21
g22
sbag7
(g8
g9
NtRp634
(dp635
g12
g13
sg14
S'System Font'
p636
sg16
I400
sg17
g13
sg18
g13
sg19
S'/System/Library/Fonts/SFNSDisplay-Light.otf'
p637
sg21
g22
sbag7
(g8
g9
NtRp638
(dp639
g12
g74
sg14
S'STIXNonUnicode'
p640
sg16
I700
sg17
g13
sg18
g13
sg19
S'/Library/Fonts/STIXNonUniBolIta.otf'
p641
sg21
g22
sbag7
(g8
g9
NtRp642
(dp643
g12
g13
sg14
S'Apple Braille'
p644
sg16
I400
sg17
g13
sg18
g13
sg19
S'/System/Library/Fonts/Apple Braille Pinpoint 8 Dot.ttf'
p645
sg21
g22
sbag7
(g8
g9
NtRp646
(dp647
g12
g74
sg14
S'Akkurat Pro'
p648
sg16
I200
sg17
g13
sg18
g13
sg19
S'/Users/adrianwan/Library/Fonts/AkkuratPro-LightItalic.otf'
p649
sg21
g22
sbag7
(g8
g9
NtRp650
(dp651
g12
g74
sg14
S'Georgia'
p652
sg16
I400
sg17
g13
sg18
g13
sg19
S'/Library/Fonts/Georgia Italic.ttf'
p653
sg21
g22
sbag7
(g8
g9
NtRp654
(dp655
g12
g13
sg14
S'Apple Braille'
p656
sg16
I400
sg17
g13
sg18
g13
sg19
S'/System/Library/Fonts/Apple Braille Outline 6 Dot.ttf'
p657
sg21
g22
sbag7
(g8
g9
NtRp658
(dp659
g12
g74
sg14
S'Open Sans'
p660
sg16
I700
sg17
g13
sg18
g13
sg19
S'/Library/Fonts/OpenSans-BoldItalic.ttf'
p661
sg21
g22
sbag7
(g8
g9
NtRp662
(dp663
g12
g74
sg14
S'Courier New'
p664
sg16
I700
sg17
g13
sg18
g13
sg19
S'/Library/Fonts/Courier New Bold Italic.ttf'
p665
sg21
g22
sbag7
(g8
g9
NtRp666
(dp667
g12
g13
sg14
S'Wawati SC'
p668
sg16
I400
sg17
g13
sg18
g13
sg19
S'/Library/Fonts/WawaSC-Regular.otf'
p669
sg21
g22
sbag7
(g8
g9
NtRp670
(dp671
g12
g13
sg14
S'System Font'
p672
sg16
I400
sg17
g13
sg18
g13
sg19
S'/System/Library/Fonts/SFNSText-RegularG3.otf'
p673
sg21
g22
sbag7
(g8
g9
NtRp674
(dp675
g12
g13
sg14
S'Arial Rounded MT Bold'
p676
sg16
I700
sg17
g13
sg18
g13
sg19
S'/Library/Fonts/Arial Rounded Bold.ttf'
p677
sg21
g22
sbag7
(g8
g9
NtRp678
(dp679
g12
g74
sg14
S'Roboto Mono'
p680
sg16
I400
sg17
g13
sg18
g13
sg19
S'/Library/Fonts/RobotoMono-Italic.ttf'
p681
sg21
g22
sbag7
(g8
g9
NtRp682
(dp683
g12
g74
sg14
S'Liberation Mono for Powerline'
p684
sg16
I700
sg17
g13
sg18
g13
sg19
S'/Users/adrianwan/Library/Fonts/Literation Mono Powerline Bold Italic.ttf'
p685
sg21
g22
sbag7
(g8
g9
NtRp686
(dp687
g12
g13
sg14
S'Droid Sans Mono for Powerline'
p688
sg16
I400
sg17
g13
sg18
g13
sg19
S'/Users/adrianwan/Library/Fonts/Droid Sans Mono for Powerline.otf'
p689
sg21
g22
sbag7
(g8
g9
NtRp690
(dp691
g12
g13
sg14
S'Fira Mono for Powerline'
p692
sg16
I700
sg17
g13
sg18
g13
sg19
S'/Users/adrianwan/Library/Fonts/FuraMono-Bold Powerline.otf'
p693
sg21
g22
sbag7
(g8
g9
NtRp694
(dp695
g12
g13
sg14
S'Source Code Pro for Powerline'
p696
sg16
I700
sg17
g13
sg18
g13
sg19
S'/Users/adrianwan/Library/Fonts/Sauce Code Powerline Bold.otf'
p697
sg21
g22
sbag7
(g8
g9
NtRp698
(dp699
g12
g13
sg14
S'Source Code Pro for Powerline'
p700
sg16
I200
sg17
g13
sg18
g13
sg19
S'/Users/adrianwan/Library/Fonts/Sauce Code Powerline ExtraLight.otf'
p701
sg21
g22
sbag7
(g8
g9
NtRp702
(dp703
g12
g13
sg14
S'Open Sans'
p704
sg16
I700
sg17
g13
sg18
g13
sg19
S'/Library/Fonts/OpenSans-Semibold.ttf'
p705
sg21
g22
sbag7
(g8
g9
NtRp706
(dp707
g12
g13
sg14
S'System Font'
p708
sg16
I400
sg17
g13
sg18
g13
sg19
S'/System/Library/Fonts/SFNSText-Semibold.otf'
p709
sg21
g22
sbag7
(g8
g9
NtRp710
(dp711
g12
g13
sg14
S'PCMyungjo'
p712
sg16
I400
sg17
g13
sg18
g13
sg19
S'/Library/Fonts/PCmyoungjo.ttf'
p713
sg21
g22
sbag7
(g8
g9
NtRp714
(dp715
g12
g13
sg14
S'.LastResort'
p716
sg16
I400
sg17
g13
sg18
g13
sg19
S'/System/Library/Fonts/LastResort.ttf'
p717
sg21
g22
sbag7
(g8
g9
NtRp718
(dp719
g12
g74
sg14
S'Roboto Mono'
p720
sg16
I400
sg17
g13
sg18
g13
sg19
S'/Library/Fonts/RobotoMono-ThinItalic.ttf'
p721
sg21
g22
sbag7
(g8
g9
NtRp722
(dp723
g12
g74
sg14
S'Verdana'
p724
sg16
I700
sg17
g13
sg18
g13
sg19
S'/Library/Fonts/Verdana Bold Italic.ttf'
p725
sg21
g22
sbag7
(g8
g9
NtRp726
(dp727
g12
g13
sg14
S'Meslo LG S DZ for Powerline'
p728
sg16
I400
sg17
g13
sg18
g13
sg19
S'/Users/adrianwan/Library/Fonts/Meslo LG S DZ Regular for Powerline.otf'
p729
sg21
g22
sbag7
(g8
g9
NtRp730
(dp731
g12
g13
sg14
S'System Font'
p732
sg16
I400
sg17
g13
sg18
g13
sg19
S'/System/Library/Fonts/SFNSText-LightItalic.otf'
p733
sg21
g22
sbag7
(g8
g9
NtRp734
(dp735
g12
g74
sg14
S'Roboto Mono'
p736
sg16
I700
sg17
g13
sg18
g13
sg19
S'/Library/Fonts/RobotoMono-BoldItalic.ttf'
p737
sg21
g22
sbag7
(g8
g9
NtRp738
(dp739
g12
g13
sg14
S'InaiMathi'
p740
sg16
I400
sg17
g13
sg18
g13
sg19
S'/Library/Fonts/InaiMathi.ttf'
p741
sg21
g22
sbag7
(g8
g9
NtRp742
(dp743
g12
g13
sg14
S'System Font'
p744
sg16
I400
sg17
g13
sg18
g13
sg19
S'/System/Library/Fonts/SFNSText-BoldG2.otf'
p745
sg21
g22
sbag7
(g8
g9
NtRp746
(dp747
g12
g13
sg14
S'STIXIntegralsSm'
p748
sg16
I400
sg17
g13
sg18
g13
sg19
S'/Library/Fonts/STIXIntSmReg.otf'
p749
sg21
g22
sbag7
(g8
g9
NtRp750
(dp751
g12
g13
sg14
S'Kokonor'
p752
sg16
I400
sg17
g13
sg18
g13
sg19
S'/Library/Fonts/Kokonor.ttf'
p753
sg21
g22
sbag7
(g8
g9
NtRp754
(dp755
g12
g13
sg14
S'System Font'
p756
sg16
I400
sg17
g13
sg18
g13
sg19
S'/System/Library/Fonts/SFNSText-Bold.otf'
p757
sg21
g22
sbag7
(g8
g9
NtRp758
(dp759
g12
g74
sg14
S'Verdana'
p760
sg16
I400
sg17
g13
sg18
g13
sg19
S'/Library/Fonts/Verdana Italic.ttf'
p761
sg21
g22
sbag7
(g8
g9
NtRp762
(dp763
g12
g13
sg14
S'STIXGeneral'
p764
sg16
I700
sg17
g13
sg18
g13
sg19
S'/Library/Fonts/STIXGeneralBol.otf'
p765
sg21
g22
sbag7
(g8
g9
NtRp766
(dp767
g12
g13
sg14
S'Apple Braille'
p768
sg16
I400
sg17
g13
sg18
g13
sg19
S'/System/Library/Fonts/Apple Braille.ttf'
p769
sg21
g22
sbag7
(g8
g9
NtRp770
(dp771
g12
g13
sg14
S'Roboto Mono'
p772
sg16
I400
sg17
g13
sg18
g13
sg19
S'/Library/Fonts/RobotoMono-Light.ttf'
p773
sg21
g22
sbag7
(g8
g9
NtRp774
(dp775
g12
g13
sg14
S'System Font'
p776
sg16
I400
sg17
g13
sg18
g13
sg19
S'/System/Library/Fonts/SFNSText-Light.otf'
p777
sg21
g22
sbag7
(g8
g9
NtRp778
(dp779
g12
g13
sg14
S'System Font'
p780
sg16
I400
sg17
g13
sg18
g13
sg19
S'/System/Library/Fonts/SFNSDisplay-Ultralight.otf'
p781
sg21
g22
sbag7
(g8
g9
NtRp782
(dp783
g12
g13
sg14
S'Chalkduster'
p784
sg16
I400
sg17
g13
sg18
g13
sg19
S'/Library/Fonts/Chalkduster.ttf'
p785
sg21
g22
sbag7
(g8
g9
NtRp786
(dp787
g12
g74
sg14
S'Ubuntu Mono derivative Powerline'
p788
sg16
I400
sg17
g13
sg18
g13
sg19
S'/Users/adrianwan/Library/Fonts/Ubuntu Mono derivative Powerline Italic.ttf'
p789
sg21
g22
sbag7
(g8
g9
NtRp790
(dp791
g12
g74
sg14
S'Roboto'
p792
sg16
I400
sg17
g13
sg18
g13
sg19
S'/Library/Fonts/Roboto-MediumItalic.ttf'
p793
sg21
g22
sbag7
(g8
g9
NtRp794
(dp795
g12
g74
sg14
S'Trebuchet MS'
p796
sg16
I400
sg17
g13
sg18
g13
sg19
S'/Library/Fonts/Trebuchet MS Italic.ttf'
p797
sg21
g22
sbag7
(g8
g9
NtRp798
(dp799
g12
g74
sg14
S'Anonymous Pro'
p800
sg16
I400
sg17
g13
sg18
g13
sg19
S'/Users/adrianwan/Library/Fonts/Anonymous Pro I.ttf'
p801
sg21
g22
sbag7
(g8
g9
NtRp802
(dp803
g12
g13
sg14
S'STIXNonUnicode'
p804
sg16
I400
sg17
g13
sg18
g13
sg19
S'/Library/Fonts/STIXNonUni.otf'
p805
sg21
g22
sbag7
(g8
g9
NtRp806
(dp807
g12
g13
sg14
S'Open Sans'
p808
sg16
I200
sg17
g13
sg18
g13
sg19
S'/Library/Fonts/OpenSans-Light.ttf'
p809
sg21
g22
sbag7
(g8
g9
NtRp810
(dp811
g12
g74
sg14
S'Roboto Mono'
p812
sg16
I400
sg17
g13
sg18
g13
sg19
S'/Library/Fonts/RobotoMono-LightItalic.ttf'
p813
sg21
g22
sbag7
(g8
g9
NtRp814
(dp815
g12
g13
sg14
S'Roboto Slab'
p816
sg16
I400
sg17
g13
sg18
g13
sg19
S'/Library/Fonts/RobotoSlab-Regular.ttf'
p817
sg21
g22
sbag7
(g8
g9
NtRp818
(dp819
g12
g13
sg14
S'STIXIntegralsD'
p820
sg16
I400
sg17
g13
sg18
g13
sg19
S'/Library/Fonts/STIXIntDReg.otf'
p821
sg21
g22
sbag7
(g8
g9
NtRp822
(dp823
g12
g13
sg14
S'Roboto Mono'
p824
sg16
I400
sg17
g13
sg18
g13
sg19
S'/Library/Fonts/RobotoMono-Thin.ttf'
p825
sg21
g22
sbag7
(g8
g9
NtRp826
(dp827
g12
g74
sg14
S'Anonymous Pro'
p828
sg16
I700
sg17
g13
sg18
g13
sg19
S'/Users/adrianwan/Library/Fonts/Anonymous Pro BI.ttf'
p829
sg21
g22
sbag7
(g8
g9
NtRp830
(dp831
g12
g74
sg14
S'STIXNonUnicode'
p832
sg16
I400
sg17
g13
sg18
g13
sg19
S'/Library/Fonts/STIXNonUniIta.otf'
p833
sg21
g22
sbag7
(g8
g9
NtRp834
(dp835
g12
g13
sg14
S'STIXIntegralsUp'
p836
sg16
I400
sg17
g13
sg18
g13
sg19
S'/Library/Fonts/STIXIntUpReg.otf'
p837
sg21
g22
sbag7
(g8
g9
NtRp838
(dp839
g12
g13
sg14
S'Yuppy SC'
p840
sg16
I400
sg17
g13
sg18
g13
sg19
S'/Library/Fonts/YuppySC-Regular.otf'
p841
sg21
g22
sbag7
(g8
g9
NtRp842
(dp843
g12
g13
sg14
S'Comic Sans MS'
p844
sg16
I700
sg17
g13
sg18
g13
sg19
S'/Library/Fonts/Comic Sans MS Bold.ttf'
p845
sg21
g22
sbag7
(g8
g9
NtRp846
(dp847
g12
g13
sg14
S'Trebuchet MS'
p848
sg16
I400
sg17
g13
sg18
g13
sg19
S'/Library/Fonts/Trebuchet MS.ttf'
p849
sg21
g22
sbag7
(g8
g9
NtRp850
(dp851
g12
g13
sg14
S'Courier New'
p852
sg16
I700
sg17
g13
sg18
g13
sg19
S'/Library/Fonts/Courier New Bold.ttf'
p853
sg21
g22
sbag7
(g8
g9
NtRp854
(dp855
g12
g13
sg14
S'Big Caslon'
p856
sg16
I500
sg17
g13
sg18
g13
sg19
S'/Library/Fonts/BigCaslon.ttf'
p857
sg21
g22
sbag7
(g8
g9
NtRp858
(dp859
g12
g13
sg14
S'Roboto'
p860
sg16
I400
sg17
g13
sg18
g13
sg19
S'/Library/Fonts/Roboto-Thin.ttf'
p861
sg21
g22
sbag7
(g8
g9
NtRp862
(dp863
g12
g13
sg14
S'System Font'
p864
sg16
I400
sg17
g13
sg18
g13
sg19
S'/System/Library/Fonts/SFNSText-Heavy.otf'
p865
sg21
g22
sbag7
(g8
g9
NtRp866
(dp867
g12
g13
sg14
S'Roboto'
p868
sg16
I700
sg17
g13
sg18
g13
sg19
S'/Library/Fonts/Roboto-Bold.ttf'
p869
sg21
g22
sbag7
(g8
g9
NtRp870
(dp871
g12
g74
sg14
S'Roboto'
p872
sg16
I700
sg17
g13
sg18
g13
sg19
S'/Library/Fonts/Roboto-BoldItalic.ttf'
p873
sg21
g22
sbag7
(g8
g9
NtRp874
(dp875
g12
g13
sg14
S'Hack'
p876
sg16
I700
sg17
g13
sg18
g13
sg19
S'/Users/adrianwan/Library/Fonts/Hack-Bold.ttf'
p877
sg21
g22
sbag7
(g8
g9
NtRp878
(dp879
g12
g13
sg14
S'Herculanum'
p880
sg16
I400
sg17
g13
sg18
g13
sg19
S'/Library/Fonts/Herculanum.ttf'
p881
sg21
g22
sbag7
(g8
g9
NtRp882
(dp883
g12
g13
sg14
S'Webdings'
p884
sg16
I400
sg17
g13
sg18
g13
sg19
S'/Library/Fonts/Webdings.ttf'
p885
sg21
g22
sbag7
(g8
g9
NtRp886
(dp887
g12
g13
sg14
S'System Font'
p888
sg16
I400
sg17
g13
sg18
g13
sg19
S'/System/Library/Fonts/SFNSDisplay-Black.otf'
p889
sg21
g22
sbag7
(g8
g9
NtRp890
(dp891
g12
g13
sg14
S'Apple Braille'
p892
sg16
I400
sg17
g13
sg18
g13
sg19
S'/System/Library/Fonts/Apple Braille Pinpoint 6 Dot.ttf'
p893
sg21
g22
sbag7
(g8
g9
NtRp894
(dp895
g12
g13
sg14
S'Symbol'
p896
sg16
I400
sg17
g13
sg18
g13
sg19
S'/System/Library/Fonts/Symbol.ttf'
p897
sg21
g22
sbag7
(g8
g9
NtRp898
(dp899
g12
g13
sg14
S'System Font'
p900
sg16
I400
sg17
g13
sg18
g13
sg19
S'/System/Library/Fonts/SFNSText-MediumItalic.otf'
p901
sg21
g22
sbag7
(g8
g9
NtRp902
(dp903
g12
g74
sg14
S'Trebuchet MS'
p904
sg16
I700
sg17
g13
sg18
g13
sg19
S'/Library/Fonts/Trebuchet MS Bold Italic.ttf'
p905
sg21
g22
sbag7
(g8
g9
NtRp906
(dp907
g12
g13
sg14
S'Open Sans'
p908
sg16
I700
sg17
g13
sg18
g13
sg19
S'/Library/Fonts/OpenSans-Bold.ttf'
p909
sg21
g22
sbag7
(g8
g9
NtRp910
(dp911
g12
g13
sg14
S'Wingdings 2'
p912
sg16
I400
sg17
g13
sg18
g13
sg19
S'/Library/Fonts/Wingdings 2.ttf'
p913
sg21
g22
sbag7
(g8
g9
NtRp914
(dp915
g12
g13
sg14
S'HeadLineA'
p916
sg16
I400
sg17
g13
sg18
g13
sg19
S'/Library/Fonts/HeadlineA.ttf'
p917
sg21
g22
sbag7
(g8
g9
NtRp918
(dp919
g12
g13
sg14
S'Tahoma'
p920
sg16
I400
sg17
g13
sg18
g13
sg19
S'/Library/Fonts/Tahoma.ttf'
p921
sg21
g22
sbag7
(g8
g9
NtRp922
(dp923
g12
g74
sg14
S'Brush Script MT'
p924
sg16
I400
sg17
g13
sg18
g13
sg19
S'/Library/Fonts/Brush Script.ttf'
p925
sg21
g22
sbag7
(g8
g9
NtRp926
(dp927
g12
g13
sg14
S'.Keyboard'
p928
sg16
I400
sg17
g13
sg18
g13
sg19
S'/System/Library/Fonts/Keyboard.ttf'
p929
sg21
g22
sbag7
(g8
g9
NtRp930
(dp931
g12
g13
sg14
S'Anonymous Pro'
p932
sg16
I400
sg17
g13
sg18
g13
sg19
S'/Users/adrianwan/Library/Fonts/Anonymous Pro.ttf'
p933
sg21
g22
sbag7
(g8
g9
NtRp934
(dp935
g12
g74
sg14
S'Akkurat Pro'
p936
sg16
I400
sg17
g13
sg18
g13
sg19
S'/Users/adrianwan/Library/Fonts/AkkuratPro-RegularItalic.otf'
p937
sg21
g22
sbag7
(g8
g9
NtRp938
(dp939
g12
g13
sg14
S'STIXSizeOneSym'
p940
sg16
I400
sg17
g13
sg18
g13
sg19
S'/Library/Fonts/STIXSizOneSymReg.otf'
p941
sg21
g22
sbag7
(g8
g9
NtRp942
(dp943
g12
g13
sg14
S'STIXIntegralsUpSm'
p944
sg16
I400
sg17
g13
sg18
g13
sg19
S'/Library/Fonts/STIXIntUpSmReg.otf'
p945
sg21
g22
sbag7
(g8
g9
NtRp946
(dp947
g12
g13
sg14
S'Andale Mono'
p948
sg16
I400
sg17
g13
sg18
g13
sg19
S'/Library/Fonts/Andale Mono.ttf'
p949
sg21
g22
sbag7
(g8
g9
NtRp950
(dp951
g12
g13
sg14
S'Ubuntu Mono derivative Powerline'
p952
sg16
I700
sg17
g13
sg18
g13
sg19
S'/Users/adrianwan/Library/Fonts/Ubuntu Mono derivative Powerline Bold.ttf'
p953
sg21
g22
sbag7
(g8
g9
NtRp954
(dp955
g12
g13
sg14
S'Khmer Sangam MN'
p956
sg16
I400
sg17
g13
sg18
g13
sg19
S'/Library/Fonts/Khmer Sangam MN.ttf'
p957
sg21
g22
sbag7
(g8
g9
NtRp958
(dp959
g12
g13
sg14
S'Inconsolata-dz for Powerline'
p960
sg16
I400
sg17
g13
sg18
g13
sg19
S'/Users/adrianwan/Library/Fonts/Inconsolata-dz for Powerline.otf'
p961
sg21
g22
sbag7
(g8
g9
NtRp962
(dp963
g12
g13
sg14
S'Roboto'
p964
sg16
I400
sg17
g13
sg18
g13
sg19
S'/Library/Fonts/Roboto-Light.ttf'
p965
sg21
g22
sbag7
(g8
g9
NtRp966
(dp967
g12
g13
sg14
S'Microsoft Sans Serif'
p968
sg16
I400
sg17
g13
sg18
g13
sg19
S'/Library/Fonts/Microsoft Sans Serif.ttf'
p969
sg21
g22
sbag7
(g8
g9
NtRp970
(dp971
g12
g13
sg14
S'Open Sans'
p972
sg16
I400
sg17
g13
sg18
g13
sg19
S'/Library/Fonts/OpenSans-Regular.ttf'
p973
sg21
g22
sbag7
(g8
g9
NtRp974
(dp975
g12
g13
sg14
S'STIXIntegralsUpD'
p976
sg16
I700
sg17
g13
sg18
g13
sg19
S'/Library/Fonts/STIXIntUpDBol.otf'
p977
sg21
g22
sbag7
(g8
g9
NtRp978
(dp979
g12
g13
sg14
S'Anonymous Pro for Powerline'
p980
sg16
I400
sg17
g13
sg18
g13
sg19
S'/Users/adrianwan/Library/Fonts/Anonymice Powerline.ttf'
p981
sg21
g22
sbag7
(g8
g9
NtRp982
(dp983
g12
g13
sg14
S'STIXGeneral'
p984
sg16
I400
sg17
g13
sg18
g13
sg19
S'/Library/Fonts/STIXGeneral.otf'
p985
sg21
g22
sbag7
(g8
g9
NtRp986
(dp987
g12
g74
sg14
S'Courier New'
p988
sg16
I400
sg17
g13
sg18
g13
sg19
S'/Library/Fonts/Courier New Italic.ttf'
p989
sg21
g22
sbag7
(g8
g9
NtRp990
(dp991
g12
g13
sg14
S'Arial Black'
p992
sg16
I900
sg17
g13
sg18
g13
sg19
S'/Library/Fonts/Arial Black.ttf'
p993
sg21
g22
sbag7
(g8
g9
NtRp994
(dp995
g12
g74
sg14
S'STIXGeneral'
p996
sg16
I400
sg17
g13
sg18
g13
sg19
S'/Library/Fonts/STIXGeneralItalic.otf'
p997
sg21
g22
sbag7
(g8
g9
NtRp998
(dp999
g12
g13
sg14
S'Silom'
p1000
sg16
I400
sg17
g13
sg18
g13
sg19
S'/Library/Fonts/Silom.ttf'
p1001
sg21
g22
sbag7
(g8
g9
NtRp1002
(dp1003
g12
g13
sg14
S'Roboto Mono'
p1004
sg16
I400
sg17
g13
sg18
g13
sg19
S'/Library/Fonts/RobotoMono-Medium.ttf'
p1005
sg21
g22
sbag7
(g8
g9
NtRp1006
(dp1007
g12
g74
sg14
S'Open Sans'
p1008
sg16
I700
sg17
g13
sg18
g13
sg19
S'/Library/Fonts/OpenSans-SemiboldItalic.ttf'
p1009
sg21
g22
sbag7
(g8
g9
NtRp1010
(dp1011
g12
g74
sg14
S'Anonymous Pro for Powerline'
p1012
sg16
I700
sg17
g13
sg18
g13
sg19
S'/Users/adrianwan/Library/Fonts/Anonymice Powerline Bold Italic.ttf'
p1013
sg21
g22
sbag7
(g8
g9
NtRp1014
(dp1015
g12
g13
sg14
S'Yuppy TC'
p1016
sg16
I400
sg17
g13
sg18
g13
sg19
S'/Library/Fonts/YuppyTC-Regular.otf'
p1017
sg21
g22
sbag7
(g8
g9
NtRp1018
(dp1019
g12
g13
sg14
S'System Font'
p1020
sg16
I400
sg17
g13
sg18
g13
sg19
S'/System/Library/Fonts/SFNSText-RegularG1.otf'
p1021
sg21
g22
sbag7
(g8
g9
NtRp1022
(dp1023
g12
g13
sg14
S'Roboto Condensed'
p1024
sg16
I700
sg17
g13
sg18
g13
sg19
S'/Library/Fonts/RobotoCondensed-Bold.ttf'
p1025
sg21
g22
sbag7
(g8
g9
NtRp1026
(dp1027
g12
g13
sg14
S'STIXSizeFourSym'
p1028
sg16
I400
sg17
g13
sg18
g13
sg19
S'/Library/Fonts/STIXSizFourSymReg.otf'
p1029
sg21
g22
sbag7
(g8
g9
NtRp1030
(dp1031
g12
g74
sg14
S'monofur for Powerline'
p1032
sg16
I400
sg17
g13
sg18
g13
sg19
S'/Users/adrianwan/Library/Fonts/Monofur Italic for Powerline.ttf'
p1033
sg21
g22
sbag7
(g8
g9
NtRp1034
(dp1035
g12
g13
sg14
S'STHeiti'
p1036
sg16
I400
sg17
g13
sg18
g13
sg19
S'/Library/Fonts/\xe5\x8d\x8e\xe6\x96\x87\xe9\xbb\x91\xe4\xbd\x93.ttf'
p1037
sg21
g22
sbag7
(g8
g9
NtRp1038
(dp1039
g12
g13
sg14
S'Apple Chancery'
p1040
sg16
I400
sg17
g13
sg18
g13
sg19
S'/Library/Fonts/Apple Chancery.ttf'
p1041
sg21
g22
sbag7
(g8
g9
NtRp1042
(dp1043
g12
g13
sg14
S'Roboto Condensed'
p1044
sg16
I400
sg17
g13
sg18
g13
sg19
S'/Library/Fonts/RobotoCondensed-Light.ttf'
p1045
sg21
g22
sbag7
(g8
g9
NtRp1046
(dp1047
g12
g25
sg14
S'Hack'
p1048
sg16
I400
sg17
g13
sg18
g13
sg19
S'/Users/adrianwan/Library/Fonts/Hack-RegularOblique.ttf'
p1049
sg21
g22
sbag7
(g8
g9
NtRp1050
(dp1051
g12
g74
sg14
S'Roboto Mono'
p1052
sg16
I400
sg17
g13
sg18
g13
sg19
S'/Library/Fonts/RobotoMono-MediumItalic.ttf'
p1053
sg21
g22
sbag7
(g8
g9
NtRp1054
(dp1055
g12
g13
sg14
S'Wingdings 3'
p1056
sg16
I400
sg17
g13
sg18
g13
sg19
S'/Library/Fonts/Wingdings 3.ttf'
p1057
sg21
g22
sbag7
(g8
g9
NtRp1058
(dp1059
g12
g74
sg14
S'STIXGeneral'
p1060
sg16
I700
sg17
g13
sg18
g13
sg19
S'/Library/Fonts/STIXGeneralBolIta.otf'
p1061
sg21
g22
sbag7
(g8
g9
NtRp1062
(dp1063
g12
g13
sg14
S'Akkurat Pro'
p1064
sg16
I400
sg17
g13
sg18
g13
sg19
S'/Users/adrianwan/Library/Fonts/AkkuratPro-Regular.otf'
p1065
sg21
g22
sbag7
(g8
g9
NtRp1066
(dp1067
g12
g13
sg14
S'STIXIntegralsUpSm'
p1068
sg16
I700
sg17
g13
sg18
g13
sg19
S'/Library/Fonts/STIXIntUpSmBol.otf'
p1069
sg21
g22
sbag7
(g8
g9
NtRp1070
(dp1071
g12
g13
sg14
S'Lao Sangam MN'
p1072
sg16
I400
sg17
g13
sg18
g13
sg19
S'/Library/Fonts/Lao Sangam MN.ttf'
p1073
sg21
g22
sbag7
(g8
g9
NtRp1074
(dp1075
g12
g13
sg14
S'Droid Sans Mono Slashed for Powerline'
p1076
sg16
I400
sg17
g13
sg18
g13
sg19
S'/Users/adrianwan/Library/Fonts/Droid Sans Mono Slashed for Powerline.ttf'
p1077
sg21
g22
sbag7
(g8
g9
NtRp1078
(dp1079
g12
g13
sg14
S'Trattatello'
p1080
sg16
I400
sg17
g13
sg18
g13
sg19
S'/Library/Fonts/Trattatello.ttf'
p1081
sg21
g22
sbag7
(g8
g9
NtRp1082
(dp1083
g12
g13
sg14
S'Roboto'
p1084
sg16
I400
sg17
g13
sg18
g13
sg19
S'/Library/Fonts/Roboto-Regular.ttf'
p1085
sg21
g22
sbag7
(g8
g9
NtRp1086
(dp1087
g12
g13
sg14
S'STIXSizeOneSym'
p1088
sg16
I700
sg17
g13
sg18
g13
sg19
S'/Library/Fonts/STIXSizOneSymBol.otf'
p1089
sg21
g22
sbag7
(g8
g9
NtRp1090
(dp1091
g12
g74
sg14
S'Liberation Mono for Powerline'
p1092
sg16
I400
sg17
g13
sg18
g13
sg19
S'/Users/adrianwan/Library/Fonts/Literation Mono Powerline Italic.ttf'
p1093
sg21
g22
sbag7
(g8
g9
NtRp1094
(dp1095
g12
g74
sg14
S'Ubuntu Mono derivative Powerline'
p1096
sg16
I700
sg17
g13
sg18
g13
sg19
S'/Users/adrianwan/Library/Fonts/Ubuntu Mono derivative Powerline Bold Italic.ttf'
p1097
sg21
g22
sbag7
(g8
g9
NtRp1098
(dp1099
g12
g13
sg14
S'Comic Sans MS'
p1100
sg16
I400
sg17
g13
sg18
g13
sg19
S'/Library/Fonts/Comic Sans MS.ttf'
p1101
sg21
g22
sbag7
(g8
g9
NtRp1102
(dp1103
g12
g13
sg14
S'Roboto Condensed'
p1104
sg16
I400
sg17
g13
sg18
g13
sg19
S'/Library/Fonts/RobotoCondensed-Regular.ttf'
p1105
sg21
g22
sbag7
(g8
g9
NtRp1106
(dp1107
g12
g13
sg14
S'Bodoni Ornaments'
p1108
sg16
I400
sg17
g13
sg18
g13
sg19
S'/Library/Fonts/Bodoni Ornaments.ttf'
p1109
sg21
g22
sbag7
(g8
g9
NtRp1110
(dp1111
g12
g13
sg14
S'Weibei SC'
p1112
sg16
I700
sg17
g13
sg18
g13
sg19
S'/Library/Fonts/WeibeiSC-Bold.otf'
p1113
sg21
g22
sbag7
(g8
g9
NtRp1114
(dp1115
g12
g13
sg14
S'STIXSizeFourSym'
p1116
sg16
I700
sg17
g13
sg18
g13
sg19
S'/Library/Fonts/STIXSizFourSymBol.otf'
p1117
sg21
g22
sbag7
(g8
g9
NtRp1118
(dp1119
g12
g13
sg14
S'System Font'
p1120
sg16
I400
sg17
g13
sg18
g13
sg19
S'/System/Library/Fonts/SFNSText-BoldG3.otf'
p1121
sg21
g22
sbag7
(g8
g9
NtRp1122
(dp1123
g12
g13
sg14
S'Source Code Pro for Powerline'
p1124
sg16
I500
sg17
g13
sg18
g13
sg19
S'/Users/adrianwan/Library/Fonts/Sauce Code Powerline Medium.otf'
p1125
sg21
g22
sbag7
(g8
g9
NtRp1126
(dp1127
g12
g13
sg14
S'Arial'
p1128
sg16
I700
sg17
g13
sg18
g13
sg19
S'/Library/Fonts/Arial Bold.ttf'
p1129
sg21
g22
sbag7
(g8
g9
NtRp1130
(dp1131
g12
g13
sg14
S'Georgia'
p1132
sg16
I700
sg17
g13
sg18
g13
sg19
S'/Library/Fonts/Georgia Bold.ttf'
p1133
sg21
g22
sbag7
(g8
g9
NtRp1134
(dp1135
g12
g13
sg14
S'System Font'
p1136
sg16
I400
sg17
g13
sg18
g13
sg19
S'/System/Library/Fonts/SFNSDisplay-Medium.otf'
p1137
sg21
g22
sbag7
(g8
g9
NtRp1138
(dp1139
g12
g13
sg14
S'Osaka'
p1140
sg16
I400
sg17
g13
sg18
g13
sg19
S'/Library/Fonts/OsakaMono.ttf'
p1141
sg21
g22
sbag7
(g8
g9
NtRp1142
(dp1143
g12
g13
sg14
S'GungSeo'
p1144
sg16
I400
sg17
g13
sg18
g13
sg19
S'/Library/Fonts/Gungseouche.ttf'
p1145
sg21
g22
sbag7
(g8
g9
NtRp1146
(dp1147
g12
g13
sg14
S'Ubuntu Mono derivative Powerline'
p1148
sg16
I400
sg17
g13
sg18
g13
sg19
S'/Users/adrianwan/Library/Fonts/Ubuntu Mono derivative Powerline.ttf'
p1149
sg21
g22
sbag7
(g8
g9
NtRp1150
(dp1151
g12
g13
sg14
S'Inconsolata-g for Powerline'
p1152
sg16
I400
sg17
g13
sg18
g13
sg19
S'/Users/adrianwan/Library/Fonts/Inconsolata-g for Powerline.otf'
p1153
sg21
g22
sbag7
(g8
g9
NtRp1154
(dp1155
g12
g13
sg14
S'Meslo LG M for Powerline'
p1156
sg16
I400
sg17
g13
sg18
g13
sg19
S'/Users/adrianwan/Library/Fonts/Meslo LG M Regular for Powerline.otf'
p1157
sg21
g22
sbag7
(g8
g9
NtRp1158
(dp1159
g12
g13
sg14
S'STIXSizeTwoSym'
p1160
sg16
I700
sg17
g13
sg18
g13
sg19
S'/Library/Fonts/STIXSizTwoSymBol.otf'
p1161
sg21
g22
sbag7
(g8
g9
NtRp1162
(dp1163
g12
g13
sg14
S'Wingdings'
p1164
sg16
I400
sg17
g13
sg18
g13
sg19
S'/Library/Fonts/Wingdings.ttf'
p1165
sg21
g22
sbag7
(g8
g9
NtRp1166
(dp1167
g12
g13
sg14
S'Impact'
p1168
sg16
I400
sg17
g13
sg18
g13
sg19
S'/Library/Fonts/Impact.ttf'
p1169
sg21
g22
sbag7
(g8
g9
NtRp1170
(dp1171
g12
g13
sg14
S'Tahoma'
p1172
sg16
I700
sg17
g13
sg18
g13
sg19
S'/Library/Fonts/Tahoma Bold.ttf'
p1173
sg21
g22
sbag7
(g8
g9
NtRp1174
(dp1175
g12
g13
sg14
S'STIXNonUnicode'
p1176
sg16
I700
sg17
g13
sg18
g13
sg19
S'/Library/Fonts/STIXNonUniBol.otf'
p1177
sg21
g22
sbag7
(g8
g9
NtRp1178
(dp1179
g12
g74
sg14
S'Georgia'
p1180
sg16
I700
sg17
g13
sg18
g13
sg19
S'/Library/Fonts/Georgia Bold Italic.ttf'
p1181
sg21
g22
sbag7
(g8
g9
NtRp1182
(dp1183
g12
g13
sg14
S'System Font'
p1184
sg16
I400
sg17
g13
sg18
g13
sg19
S'/System/Library/Fonts/SFNSDisplay-Heavy.otf'
p1185
sg21
g22
sbag7
(g8
g9
NtRp1186
(dp1187
g12
g13
sg14
S'STIXIntegralsUpD'
p1188
sg16
I400
sg17
g13
sg18
g13
sg19
S'/Library/Fonts/STIXIntUpDReg.otf'
p1189
sg21
g22
sbag7
(g8
g9
NtRp1190
(dp1191
g12
g13
sg14
S'Sathu'
p1192
sg16
I400
sg17
g13
sg18
g13
sg19
S'/Library/Fonts/Sathu.ttf'
p1193
sg21
g22
sbag7
(g8
g9
NtRp1194
(dp1195
g12
g13
sg14
S'System Font'
p1196
sg16
I400
sg17
g13
sg18
g13
sg19
S'/System/Library/Fonts/SFNSDisplay-Regular.otf'
p1197
sg21
g22
sbag7
(g8
g9
NtRp1198
(dp1199
g12
g74
sg14
S'Open Sans'
p1200
sg16
I700
sg17
g13
sg18
g13
sg19
S'/Library/Fonts/OpenSans-ExtraBoldItalic.ttf'
p1201
sg21
g22
sbag7
(g8
g9
NtRp1202
(dp1203
g12
g13
sg14
S'Anonymous Pro'
p1204
sg16
I700
sg17
g13
sg18
g13
sg19
S'/Users/adrianwan/Library/Fonts/Anonymous Pro B.ttf'
p1205
sg21
g22
sbasS'defaultFamily'
p1206
(dp1207
S'afm'
p1208
S'Helvetica'
p1209
sS'ttf'
p1210
S'Bitstream Vera Sans'
p1211
ssS'ttffiles'
p1212
(lp1213
S'/System/Library/Frameworks/Python.framework/Versions/2.7/Extras/lib/python/matplotlib/mpl-data/fonts/ttf/cmex10.ttf'
p1214
aS'/System/Library/Frameworks/Python.framework/Versions/2.7/Extras/lib/python/matplotlib/mpl-data/fonts/ttf/VeraBI.ttf'
p1215
aS'/System/Library/Frameworks/Python.framework/Versions/2.7/Extras/lib/python/matplotlib/mpl-data/fonts/ttf/STIXNonUni.ttf'
p1216
aS'/System/Library/Frameworks/Python.framework/Versions/2.7/Extras/lib/python/matplotlib/mpl-data/fonts/ttf/STIXNonUniBol.ttf'
p1217
aS'/System/Library/Frameworks/Python.framework/Versions/2.7/Extras/lib/python/matplotlib/mpl-data/fonts/ttf/VeraMoBd.ttf'
p1218
aS'/System/Library/Frameworks/Python.framework/Versions/2.7/Extras/lib/python/matplotlib/mpl-data/fonts/ttf/cmr10.ttf'
p1219
aS'/System/Library/Frameworks/Python.framework/Versions/2.7/Extras/lib/python/matplotlib/mpl-data/fonts/ttf/STIXGeneral.ttf'
p1220
aS'/System/Library/Frameworks/Python.framework/Versions/2.7/Extras/lib/python/matplotlib/mpl-data/fonts/ttf/VeraMoIt.ttf'
p1221
aS'/System/Library/Frameworks/Python.framework/Versions/2.7/Extras/lib/python/matplotlib/mpl-data/fonts/ttf/VeraSe.ttf'
p1222
aS'/System/Library/Frameworks/Python.framework/Versions/2.7/Extras/lib/python/matplotlib/mpl-data/fonts/ttf/STIXSizFiveSymReg.ttf'
p1223
aS'/System/Library/Frameworks/Python.framework/Versions/2.7/Extras/lib/python/matplotlib/mpl-data/fonts/ttf/VeraMono.ttf'
p1224
aS'/System/Library/Frameworks/Python.framework/Versions/2.7/Extras/lib/python/matplotlib/mpl-data/fonts/ttf/VeraMoBI.ttf'
p1225
aS'/System/Library/Frameworks/Python.framework/Versions/2.7/Extras/lib/python/matplotlib/mpl-data/fonts/ttf/STIXGeneralBol.ttf'
p1226
aS'/System/Library/Frameworks/Python.framework/Versions/2.7/Extras/lib/python/matplotlib/mpl-data/fonts/ttf/STIXGeneralItalic.ttf'
p1227
aS'/System/Library/Frameworks/Python.framework/Versions/2.7/Extras/lib/python/matplotlib/mpl-data/fonts/ttf/STIXSizFourSymReg.ttf'
p1228
aS'/System/Library/Frameworks/Python.framework/Versions/2.7/Extras/lib/python/matplotlib/mpl-data/fonts/ttf/STIXSizThreeSymBol.ttf'
p1229
aS'/System/Library/Frameworks/Python.framework/Versions/2.7/Extras/lib/python/matplotlib/mpl-data/fonts/ttf/STIXSizOneSymBol.ttf'
p1230
aS'/System/Library/Frameworks/Python.framework/Versions/2.7/Extras/lib/python/matplotlib/mpl-data/fonts/ttf/STIXSizFourSymBol.ttf'
p1231
aS'/System/Library/Frameworks/Python.framework/Versions/2.7/Extras/lib/python/matplotlib/mpl-data/fonts/ttf/VeraBd.ttf'
p1232
aS'/System/Library/Frameworks/Python.framework/Versions/2.7/Extras/lib/python/matplotlib/mpl-data/fonts/ttf/cmsy10.ttf'
p1233
aS'/System/Library/Frameworks/Python.framework/Versions/2.7/Extras/lib/python/matplotlib/mpl-data/fonts/ttf/STIXSizTwoSymReg.ttf'
p1234
aS'/System/Library/Frameworks/Python.framework/Versions/2.7/Extras/lib/python/matplotlib/mpl-data/fonts/ttf/STIXNonUniBolIta.ttf'
p1235
aS'/System/Library/Frameworks/Python.framework/Versions/2.7/Extras/lib/python/matplotlib/mpl-data/fonts/ttf/cmb10.ttf'
p1236
aS'/System/Library/Frameworks/Python.framework/Versions/2.7/Extras/lib/python/matplotlib/mpl-data/fonts/ttf/cmss10.ttf'
p1237
aS'/System/Library/Frameworks/Python.framework/Versions/2.7/Extras/lib/python/matplotlib/mpl-data/fonts/ttf/STIXSizThreeSymReg.ttf'
p1238
aS'/System/Library/Frameworks/Python.framework/Versions/2.7/Extras/lib/python/matplotlib/mpl-data/fonts/ttf/STIXSizOneSymReg.ttf'
p1239
aS'/System/Library/Frameworks/Python.framework/Versions/2.7/Extras/lib/python/matplotlib/mpl-data/fonts/ttf/Vera.ttf'
p1240
aS'/System/Library/Frameworks/Python.framework/Versions/2.7/Extras/lib/python/matplotlib/mpl-data/fonts/ttf/cmmi10.ttf'
p1241
aS'/System/Library/Frameworks/Python.framework/Versions/2.7/Extras/lib/python/matplotlib/mpl-data/fonts/ttf/VeraSeBd.ttf'
p1242
aS'/System/Library/Frameworks/Python.framework/Versions/2.7/Extras/lib/python/matplotlib/mpl-data/fonts/ttf/VeraIt.ttf'
p1243
aS'/System/Library/Frameworks/Python.framework/Versions/2.7/Extras/lib/python/matplotlib/mpl-data/fonts/ttf/STIXSizTwoSymBol.ttf'
p1244
aS'/System/Library/Frameworks/Python.framework/Versions/2.7/Extras/lib/python/matplotlib/mpl-data/fonts/ttf/STIXNonUniIta.ttf'
p1245
aS'/System/Library/Frameworks/Python.framework/Versions/2.7/Extras/lib/python/matplotlib/mpl-data/fonts/ttf/cmtt10.ttf'
p1246
aS'/System/Library/Frameworks/Python.framework/Versions/2.7/Extras/lib/python/matplotlib/mpl-data/fonts/ttf/STIXGeneralBolIta.ttf'
p1247
aS'/Users/adrianwan/Library/Fonts/AkkuratPro-Bold.otf'
p1248
aS'/Library/Fonts/OpenSans-Italic.ttf'
p1249
aS'/Library/Fonts/\xe5\x8d\x8e\xe6\x96\x87\xe7\xbb\x86\xe9\xbb\x91.ttf'
p1250
aS'/Library/Fonts/Hoefler Text Ornaments.ttf'
p1251
aS'/Library/Fonts/Roboto-Italic.ttf'
p1252
aS'/Library/Fonts/Times New Roman.ttf'
p1253
aS'/Library/Fonts/Roboto-Medium.ttf'
p1254
aS'/Library/Fonts/Osaka.ttf'
p1255
aS'/Library/Fonts/Verdana Bold.ttf'
p1256
aS'/System/Library/Fonts/SFNSDisplay-Bold.otf'
p1257
aS'/Library/Fonts/\xe5\x84\xb7\xe9\xbb\x91 Pro.ttf'
p1258
aS'/Library/Fonts/Arial Unicode.ttf'
p1259
aS'/Users/adrianwan/Library/Fonts/Meslo LG L DZ Regular for Powerline.otf'
p1260
aS'/Library/Fonts/STIXSizThreeSymReg.otf'
p1261
aS'/Users/adrianwan/Library/Fonts/Sauce Code Powerline Black.otf'
p1262
aS'/Library/Fonts/DIN Condensed Bold.ttf'
p1263
aS'/Users/adrianwan/Library/Fonts/Droid Sans Mono Dotted for Powerline.ttf'
p1264
aS'/Library/Fonts/Ayuthaya.ttf'
p1265
aS'/System/Library/Fonts/SFNSText-HeavyItalic.otf'
p1266
aS'/Users/adrianwan/Library/Fonts/Hack-BoldOblique.ttf'
p1267
aS'/Library/Fonts/Arial.ttf'
p1268
aS'/Users/adrianwan/Library/Fonts/Literation Mono Powerline Bold.ttf'
p1269
aS'/Library/Fonts/AppleGothic.ttf'
p1270
aS'/Users/adrianwan/Library/Fonts/Sauce Code Powerline Light.otf'
p1271
aS'/Library/Fonts/Yu Gothic Medium.otf'
p1272
aS'/Users/adrianwan/Library/Fonts/FuraMono-Regular Powerline.otf'
p1273
aS'/Library/Fonts/Arial Narrow.ttf'
p1274
aS'/Library/Fonts/NISC18030.ttf'
p1275
aS'/Users/adrianwan/Library/Fonts/Meslo LG M DZ Regular for Powerline.otf'
p1276
aS'/Library/Fonts/Roboto-LightItalic.ttf'
p1277
aS'/Library/Fonts/AppleMyungjo.ttf'
p1278
aS'/Users/adrianwan/Library/Fonts/Meslo LG S Regular for Powerline.otf'
p1279
aS'/Library/Fonts/Mishafi Gold.ttf'
p1280
aS'/Library/Fonts/RobotoCondensed-LightItalic.ttf'
p1281
aS'/Users/adrianwan/Library/Fonts/AkkuratPro-Light.otf'
p1282
aS'/System/Library/Fonts/ZapfDingbats.ttf'
p1283
aS'/Library/Fonts/Roboto-ThinItalic.ttf'
p1284
aS'/Library/Fonts/STIXIntDBol.otf'
p1285
aS'/System/Library/Fonts/SFNSText-BoldItalicG2.otf'
p1286
aS'/System/Library/Fonts/SFNSDisplay-Semibold.otf'
p1287
aS'/Library/Fonts/DIN Alternate Bold.ttf'
p1288
aS'/Users/adrianwan/Library/Fonts/Sauce Code Powerline Semibold.otf'
p1289
aS'/Library/Fonts/STIXSizThreeSymBol.otf'
p1290
aS'/Library/Fonts/RobotoSlab-Thin.ttf'
p1291
aS'/Library/Fonts/Courier New.ttf'
p1292
aS'/Library/Fonts/Arial Narrow Bold Italic.ttf'
p1293
aS'/Library/Fonts/Luminari.ttf'
p1294
aS'/Library/Fonts/Zapfino.ttf'
p1295
aS'/Users/adrianwan/Library/Fonts/DejaVu Sans Mono for Powerline.ttf'
p1296
aS'/Library/Fonts/Arial Narrow Bold.ttf'
p1297
aS'/Library/Fonts/Times New Roman Italic.ttf'
p1298
aS'/Library/Fonts/Krungthep.ttf'
p1299
aS'/Library/Fonts/RobotoCondensed-BoldItalic.ttf'
p1300
aS'/Users/adrianwan/Library/Fonts/Inconsolata for Powerline.otf'
p1301
aS'/Library/Fonts/Georgia.ttf'
p1302
aS'/System/Library/Fonts/SFNSText-Medium.otf'
p1303
aS'/Library/Fonts/STIXIntSmBol.otf'
p1304
aS'/Library/Fonts/Diwan Thuluth.ttf'
p1305
aS'/Library/Fonts/Trebuchet MS Bold.ttf'
p1306
aS'/Users/adrianwan/Library/Fonts/DejaVu Sans Mono Bold for Powerline.ttf'
p1307
aS'/Library/Fonts/Roboto-BlackItalic.ttf'
p1308
aS'/System/Library/Fonts/SFNSText-BoldG1.otf'
p1309
aS'/Users/adrianwan/Library/Fonts/FuraMono-Medium Powerline.otf'
p1310
aS'/Library/Fonts/RobotoSlab-Light.ttf'
p1311
aS'/Library/Fonts/Bradley Hand Bold.ttf'
p1312
aS'/Library/Fonts/RobotoMono-Bold.ttf'
p1313
aS'/System/Library/Fonts/SFNSText-SemiboldItalic.otf'
p1314
aS'/Library/Fonts/Times New Roman Bold Italic.ttf'
p1315
aS'/Users/adrianwan/Library/Fonts/Literation Mono Powerline.ttf'
p1316
aS'/Library/Fonts/Arial Narrow Italic.ttf'
p1317
aS'/Users/adrianwan/Library/Fonts/Meslo LG L Regular for Powerline.otf'
p1318
aS'/Library/Fonts/WeibeiTC-Bold.otf'
p1319
aS'/Users/adrianwan/Library/Fonts/AkkuratPro-BoldItalic.otf'
p1320
aS'/System/Library/Fonts/SFNSText-RegularItalicG3.otf'
p1321
aS'/Users/adrianwan/Library/Fonts/Anonymice Powerline Italic.ttf'
p1322
aS'/Library/Fonts/Pilgiche.ttf'
p1323
aS'/System/Library/Fonts/Apple Braille Outline 8 Dot.ttf'
p1324
aS'/Library/Fonts/RobotoCondensed-Italic.ttf'
p1325
aS'/System/Library/Fonts/SFNSText-RegularItalicG2.otf'
p1326
aS'/Library/Fonts/PlantagenetCherokee.ttf'
p1327
aS'/System/Library/Fonts/SFNSText-BoldItalicG3.otf'
p1328
aS'/System/Library/Fonts/SFNSText-RegularItalic.otf'
p1329
aS'/Users/adrianwan/Library/Fonts/DejaVu Sans Mono Bold Oblique for Powerline.ttf'
p1330
aS'/Library/Fonts/Times New Roman Bold.ttf'
p1331
aS'/Users/adrianwan/Library/Fonts/Anonymice Powerline Bold.ttf'
p1332
aS'/Library/Fonts/Arial Bold Italic.ttf'
p1333
aS'/Library/Fonts/SignPainter.otf'
p1334
aS'/Users/adrianwan/Library/Fonts/Sauce Code Powerline Regular.otf'
p1335
aS'/Library/Fonts/STIXVar.otf'
p1336
aS'/Library/Fonts/Mishafi.ttf'
p1337
aS'/Library/Fonts/STIXVarBol.otf'
p1338
aS'/System/Library/Fonts/SFNSText-BoldItalic.otf'
p1339
aS'/System/Library/Fonts/SFNSText-BoldItalicG1.otf'
p1340
aS'/System/Library/Fonts/SFNSDisplay-Thin.otf'
p1341
aS'/System/Library/Fonts/SFNSText-RegularG2.otf'
p1342
aS'/Library/Fonts/Roboto-Black.ttf'
p1343
aS'/Users/adrianwan/Library/Fonts/Monofur for Powerline.ttf'
p1344
aS'/Users/adrianwan/Library/Fonts/Hack-Regular.ttf'
p1345
aS'/System/Library/Fonts/SFNSText-Regular.otf'
p1346
aS'/Library/Fonts/STIXIntUpBol.otf'
p1347
aS'/Library/Fonts/WawaTC-Regular.otf'
p1348
aS'/Library/Fonts/Skia.ttf'
p1349
aS'/Library/Fonts/STIXSizFiveSymReg.otf'
p1350
aS'/Library/Fonts/Verdana.ttf'
p1351
aS'/Library/Fonts/Farisi.ttf'
p1352
aS'/Library/Fonts/RobotoSlab-Bold.ttf'
p1353
aS'/Users/adrianwan/Library/Fonts/DejaVu Sans Mono Oblique for Powerline.ttf'
p1354
aS'/Library/Fonts/Gurmukhi.ttf'
p1355
aS'/Library/Fonts/Bodoni 72 Smallcaps Book.ttf'
p1356
aS'/Library/Fonts/Yu Gothic Bold.otf'
p1357
aS'/System/Library/Fonts/SFNSText-RegularItalicG1.otf'
p1358
aS'/System/Library/Fonts/Apple Color Emoji.ttf'
p1359
aS'/Library/Fonts/STIXSizTwoSymReg.otf'
p1360
aS'/Users/adrianwan/Library/Fonts/Monofur Bold for Powerline.ttf'
p1361
aS'/Library/Fonts/OpenSans-ExtraBold.ttf'
p1362
aS'/Library/Fonts/OpenSans-LightItalic.ttf'
p1363
aS'/Library/Fonts/\xe5\x8d\x8e\xe6\x96\x87\xe4\xbb\xbf\xe5\xae\x8b.ttf'
p1364
aS'/Library/Fonts/Arial Italic.ttf'
p1365
aS'/Library/Fonts/\xe5\x84\xb7\xe5\xae\x8b Pro.ttf'
p1366
aS'/Library/Fonts/RobotoMono-Regular.ttf'
p1367
aS'/System/Library/Fonts/SFNSDisplay-Light.otf'
p1368
aS'/Library/Fonts/STIXNonUniBolIta.otf'
p1369
aS'/System/Library/Fonts/Apple Braille Pinpoint 8 Dot.ttf'
p1370
aS'/Users/adrianwan/Library/Fonts/AkkuratPro-LightItalic.otf'
p1371
aS'/Library/Fonts/Georgia Italic.ttf'
p1372
aS'/System/Library/Fonts/Apple Braille Outline 6 Dot.ttf'
p1373
aS'/Library/Fonts/OpenSans-BoldItalic.ttf'
p1374
aS'/Library/Fonts/Courier New Bold Italic.ttf'
p1375
aS'/Library/Fonts/WawaSC-Regular.otf'
p1376
aS'/System/Library/Fonts/SFNSText-RegularG3.otf'
p1377
aS'/Library/Fonts/Arial Rounded Bold.ttf'
p1378
aS'/Library/Fonts/RobotoMono-Italic.ttf'
p1379
aS'/Users/adrianwan/Library/Fonts/Literation Mono Powerline Bold Italic.ttf'
p1380
aS'/Users/adrianwan/Library/Fonts/Droid Sans Mono for Powerline.otf'
p1381
aS'/Users/adrianwan/Library/Fonts/FuraMono-Bold Powerline.otf'
p1382
aS'/Users/adrianwan/Library/Fonts/Sauce Code Powerline Bold.otf'
p1383
aS'/Users/adrianwan/Library/Fonts/Sauce Code Powerline ExtraLight.otf'
p1384
aS'/Library/Fonts/OpenSans-Semibold.ttf'
p1385
aS'/System/Library/Fonts/SFNSText-Semibold.otf'
p1386
aS'/Library/Fonts/PCmyoungjo.ttf'
p1387
aS'/System/Library/Fonts/LastResort.ttf'
p1388
aS'/Library/Fonts/RobotoMono-ThinItalic.ttf'
p1389
aS'/Library/Fonts/Verdana Bold Italic.ttf'
p1390
aS'/Users/adrianwan/Library/Fonts/Meslo LG S DZ Regular for Powerline.otf'
p1391
aS'/System/Library/Fonts/SFNSText-LightItalic.otf'
p1392
aS'/Library/Fonts/RobotoMono-BoldItalic.ttf'
p1393
aS'/Library/Fonts/InaiMathi.ttf'
p1394
aS'/System/Library/Fonts/SFNSText-BoldG2.otf'
p1395
aS'/Library/Fonts/STIXIntSmReg.otf'
p1396
aS'/Library/Fonts/Kokonor.ttf'
p1397
aS'/System/Library/Fonts/SFNSText-Bold.otf'
p1398
aS'/Library/Fonts/Verdana Italic.ttf'
p1399
aS'/Library/Fonts/STIXGeneralBol.otf'
p1400
aS'/System/Library/Fonts/Apple Braille.ttf'
p1401
aS'/Library/Fonts/RobotoMono-Light.ttf'
p1402
aS'/System/Library/Fonts/SFNSText-Light.otf'
p1403
aS'/System/Library/Fonts/SFNSDisplay-Ultralight.otf'
p1404
aS'/Library/Fonts/Chalkduster.ttf'
p1405
aS'/Users/adrianwan/Library/Fonts/Ubuntu Mono derivative Powerline Italic.ttf'
p1406
aS'/Library/Fonts/Roboto-MediumItalic.ttf'
p1407
aS'/Library/Fonts/Trebuchet MS Italic.ttf'
p1408
aS'/Users/adrianwan/Library/Fonts/Anonymous Pro I.ttf'
p1409
aS'/Library/Fonts/STIXNonUni.otf'
p1410
aS'/Library/Fonts/OpenSans-Light.ttf'
p1411
aS'/Library/Fonts/RobotoMono-LightItalic.ttf'
p1412
aS'/Library/Fonts/RobotoSlab-Regular.ttf'
p1413
aS'/Library/Fonts/STIXIntDReg.otf'
p1414
aS'/Library/Fonts/RobotoMono-Thin.ttf'
p1415
aS'/Users/adrianwan/Library/Fonts/Anonymous Pro BI.ttf'
p1416
aS'/Library/Fonts/STIXNonUniIta.otf'
p1417
aS'/Library/Fonts/STIXIntUpReg.otf'
p1418
aS'/Library/Fonts/YuppySC-Regular.otf'
p1419
aS'/Library/Fonts/Comic Sans MS Bold.ttf'
p1420
aS'/Library/Fonts/Trebuchet MS.ttf'
p1421
aS'/Library/Fonts/Courier New Bold.ttf'
p1422
aS'/Library/Fonts/BigCaslon.ttf'
p1423
aS'/Library/Fonts/Roboto-Thin.ttf'
p1424
aS'/System/Library/Fonts/SFNSText-Heavy.otf'
p1425
aS'/Library/Fonts/Roboto-Bold.ttf'
p1426
aS'/Library/Fonts/Roboto-BoldItalic.ttf'
p1427
aS'/Users/adrianwan/Library/Fonts/Hack-Bold.ttf'
p1428
aS'/Library/Fonts/Herculanum.ttf'
p1429
aS'/Library/Fonts/Webdings.ttf'
p1430
aS'/System/Library/Fonts/SFNSDisplay-Black.otf'
p1431
aS'/System/Library/Fonts/Apple Braille Pinpoint 6 Dot.ttf'
p1432
aS'/System/Library/Fonts/Symbol.ttf'
p1433
aS'/System/Library/Fonts/SFNSText-MediumItalic.otf'
p1434
aS'/Library/Fonts/Trebuchet MS Bold Italic.ttf'
p1435
aS'/Library/Fonts/OpenSans-Bold.ttf'
p1436
aS'/Library/Fonts/Wingdings 2.ttf'
p1437
aS'/Library/Fonts/HeadlineA.ttf'
p1438
aS'/Library/Fonts/Tahoma.ttf'
p1439
aS'/Library/Fonts/Brush Script.ttf'
p1440
aS'/System/Library/Fonts/Keyboard.ttf'
p1441
aS'/Users/adrianwan/Library/Fonts/Anonymous Pro.ttf'
p1442
aS'/Users/adrianwan/Library/Fonts/AkkuratPro-RegularItalic.otf'
p1443
aS'/Library/Fonts/STIXSizOneSymReg.otf'
p1444
aS'/Library/Fonts/STIXIntUpSmReg.otf'
p1445
aS'/Library/Fonts/Andale Mono.ttf'
p1446
aS'/Users/adrianwan/Library/Fonts/Ubuntu Mono derivative Powerline Bold.ttf'
p1447
aS'/Library/Fonts/Khmer Sangam MN.ttf'
p1448
aS'/Users/adrianwan/Library/Fonts/Inconsolata-dz for Powerline.otf'
p1449
aS'/Library/Fonts/Roboto-Light.ttf'
p1450
aS'/Library/Fonts/Microsoft Sans Serif.ttf'
p1451
aS'/Library/Fonts/OpenSans-Regular.ttf'
p1452
aS'/Library/Fonts/STIXIntUpDBol.otf'
p1453
aS'/Users/adrianwan/Library/Fonts/Anonymice Powerline.ttf'
p1454
aS'/Library/Fonts/STIXGeneral.otf'
p1455
aS'/Library/Fonts/Courier New Italic.ttf'
p1456
aS'/Library/Fonts/Arial Black.ttf'
p1457
aS'/Library/Fonts/STIXGeneralItalic.otf'
p1458
aS'/Library/Fonts/Silom.ttf'
p1459
aS'/Library/Fonts/RobotoMono-Medium.ttf'
p1460
aS'/Library/Fonts/OpenSans-SemiboldItalic.ttf'
p1461
aS'/Users/adrianwan/Library/Fonts/Anonymice Powerline Bold Italic.ttf'
p1462
aS'/Library/Fonts/YuppyTC-Regular.otf'
p1463
aS'/System/Library/Fonts/SFNSText-RegularG1.otf'
p1464
aS'/Library/Fonts/RobotoCondensed-Bold.ttf'
p1465
aS'/Library/Fonts/STIXSizFourSymReg.otf'
p1466
aS'/Users/adrianwan/Library/Fonts/Monofur Italic for Powerline.ttf'
p1467
aS'/Library/Fonts/\xe5\x8d\x8e\xe6\x96\x87\xe9\xbb\x91\xe4\xbd\x93.ttf'
p1468
aS'/Library/Fonts/Apple Chancery.ttf'
p1469
aS'/Library/Fonts/RobotoCondensed-Light.ttf'
p1470
aS'/Users/adrianwan/Library/Fonts/Hack-RegularOblique.ttf'
p1471
aS'/Library/Fonts/RobotoMono-MediumItalic.ttf'
p1472
aS'/Library/Fonts/Wingdings 3.ttf'
p1473
aS'/Library/Fonts/STIXGeneralBolIta.otf'
p1474
aS'/Users/adrianwan/Library/Fonts/AkkuratPro-Regular.otf'
p1475
aS'/Library/Fonts/STIXIntUpSmBol.otf'
p1476
aS'/Library/Fonts/Lao Sangam MN.ttf'
p1477
aS'/Users/adrianwan/Library/Fonts/Droid Sans Mono Slashed for Powerline.ttf'
p1478
aS'/Library/Fonts/Trattatello.ttf'
p1479
aS'/Library/Fonts/Roboto-Regular.ttf'
p1480
aS'/Library/Fonts/STIXSizOneSymBol.otf'
p1481
aS'/Users/adrianwan/Library/Fonts/Literation Mono Powerline Italic.ttf'
p1482
aS'/Users/adrianwan/Library/Fonts/Ubuntu Mono derivative Powerline Bold Italic.ttf'
p1483
aS'/Library/Fonts/Comic Sans MS.ttf'
p1484
aS'/Library/Fonts/RobotoCondensed-Regular.ttf'
p1485
aS'/Library/Fonts/Bodoni Ornaments.ttf'
p1486
aS'/Library/Fonts/WeibeiSC-Bold.otf'
p1487
aS'/Library/Fonts/STIXSizFourSymBol.otf'
p1488
aS'/System/Library/Fonts/SFNSText-BoldG3.otf'
p1489
aS'/Users/adrianwan/Library/Fonts/Sauce Code Powerline Medium.otf'
p1490
aS'/Library/Fonts/Arial Bold.ttf'
p1491
aS'/Library/Fonts/Georgia Bold.ttf'
p1492
aS'/System/Library/Fonts/SFNSDisplay-Medium.otf'
p1493
aS'/Library/Fonts/OsakaMono.ttf'
p1494
aS'/Library/Fonts/Gungseouche.ttf'
p1495
aS'/Users/adrianwan/Library/Fonts/Ubuntu Mono derivative Powerline.ttf'
p1496
aS'/Users/adrianwan/Library/Fonts/Inconsolata-g for Powerline.otf'
p1497
aS'/Users/adrianwan/Library/Fonts/Meslo LG M Regular for Powerline.otf'
p1498
aS'/Library/Fonts/STIXSizTwoSymBol.otf'
p1499
aS'/Library/Fonts/Wingdings.ttf'
p1500
aS'/Library/Fonts/Impact.ttf'
p1501
aS'/Library/Fonts/Tahoma Bold.ttf'
p1502
aS'/Library/Fonts/STIXNonUniBol.otf'
p1503
aS'/Library/Fonts/Georgia Bold Italic.ttf'
p1504
aS'/System/Library/Fonts/SFNSDisplay-Heavy.otf'
p1505
aS'/Library/Fonts/STIXIntUpDReg.otf'
p1506
aS'/Library/Fonts/Sathu.ttf'
p1507
aS'/System/Library/Fonts/SFNSDisplay-Regular.otf'
p1508
aS'/Library/Fonts/OpenSans-ExtraBoldItalic.ttf'
p1509
aS'/Users/adrianwan/Library/Fonts/Anonymous Pro B.ttf'
p1510
asS'_FontManager__default_weight'
p1511
g13
sS'_version'
p1512
I101
sS'ttf_lookup_cache'
p1513
(dp1514
sS'default_size'
p1515
NsS'defaultFont'
p1516
(dp1517
g1208
S'/System/Library/Frameworks/Python.framework/Versions/2.7/Extras/lib/python/matplotlib/mpl-data/fonts/afm/phvl8a.afm'
p1518
sg1210
g1240
ssS'afmfiles'
p1519
(lp1520
g1518
aS'/System/Library/Frameworks/Python.framework/Versions/2.7/Extras/lib/python/matplotlib/mpl-data/fonts/afm/putbi8a.afm'
p1521
aS'/System/Library/Frameworks/Python.framework/Versions/2.7/Extras/lib/python/matplotlib/mpl-data/fonts/afm/pbkl8a.afm'
p1522
aS'/System/Library/Frameworks/Python.framework/Versions/2.7/Extras/lib/python/matplotlib/mpl-data/fonts/afm/phvbo8a.afm'
p1523
aS'/System/Library/Frameworks/Python.framework/Versions/2.7/Extras/lib/python/matplotlib/mpl-data/fonts/afm/phvb8an.afm'
p1524
aS'/System/Library/Frameworks/Python.framework/Versions/2.7/Extras/lib/python/matplotlib/mpl-data/fonts/pdfcorefonts/Symbol.afm'
p1525
aS'/System/Library/Frameworks/Python.framework/Versions/2.7/Extras/lib/python/matplotlib/mpl-data/fonts/afm/phvbo8an.afm'
p1526
aS'/System/Library/Frameworks/Python.framework/Versions/2.7/Extras/lib/python/matplotlib/mpl-data/fonts/pdfcorefonts/Times-Roman.afm'
p1527
aS'/System/Library/Frameworks/Python.framework/Versions/2.7/Extras/lib/python/matplotlib/mpl-data/fonts/afm/pncr8a.afm'
p1528
aS'/System/Library/Frameworks/Python.framework/Versions/2.7/Extras/lib/python/matplotlib/mpl-data/fonts/afm/pzdr.afm'
p1529
aS'/System/Library/Frameworks/Python.framework/Versions/2.7/Extras/lib/python/matplotlib/mpl-data/fonts/afm/phvlo8a.afm'
p1530
aS'/System/Library/Frameworks/Python.framework/Versions/2.7/Extras/lib/python/matplotlib/mpl-data/fonts/pdfcorefonts/Times-Italic.afm'
p1531
aS'/System/Library/Frameworks/Python.framework/Versions/2.7/Extras/lib/python/matplotlib/mpl-data/fonts/pdfcorefonts/Helvetica.afm'
p1532
aS'/System/Library/Frameworks/Python.framework/Versions/2.7/Extras/lib/python/matplotlib/mpl-data/fonts/afm/phvr8an.afm'
p1533
aS'/System/Library/Frameworks/Python.framework/Versions/2.7/Extras/lib/python/matplotlib/mpl-data/fonts/pdfcorefonts/Courier-Bold.afm'
p1534
aS'/System/Library/Frameworks/Python.framework/Versions/2.7/Extras/lib/python/matplotlib/mpl-data/fonts/pdfcorefonts/Helvetica-Bold.afm'
p1535
aS'/System/Library/Frameworks/Python.framework/Versions/2.7/Extras/lib/python/matplotlib/mpl-data/fonts/afm/ptmb8a.afm'
p1536
aS'/System/Library/Frameworks/Python.framework/Versions/2.7/Extras/lib/python/matplotlib/mpl-data/fonts/afm/pagd8a.afm'
p1537
aS'/System/Library/Frameworks/Python.framework/Versions/2.7/Extras/lib/python/matplotlib/mpl-data/fonts/afm/psyr.afm'
p1538
aS'/System/Library/Frameworks/Python.framework/Versions/2.7/Extras/lib/python/matplotlib/mpl-data/fonts/pdfcorefonts/ZapfDingbats.afm'
p1539
aS'/System/Library/Frameworks/Python.framework/Versions/2.7/Extras/lib/python/matplotlib/mpl-data/fonts/afm/putr8a.afm'
p1540
aS'/System/Library/Frameworks/Python.framework/Versions/2.7/Extras/lib/python/matplotlib/mpl-data/fonts/afm/cmtt10.afm'
p1541
aS'/System/Library/Frameworks/Python.framework/Versions/2.7/Extras/lib/python/matplotlib/mpl-data/fonts/afm/ptmri8a.afm'
p1542
aS'/System/Library/Frameworks/Python.framework/Versions/2.7/Extras/lib/python/matplotlib/mpl-data/fonts/afm/ptmr8a.afm'
p1543
aS'/System/Library/Frameworks/Python.framework/Versions/2.7/Extras/lib/python/matplotlib/mpl-data/fonts/pdfcorefonts/Helvetica-Oblique.afm'
p1544
aS'/System/Library/Frameworks/Python.framework/Versions/2.7/Extras/lib/python/matplotlib/mpl-data/fonts/afm/cmr10.afm'
p1545
aS'/System/Library/Frameworks/Python.framework/Versions/2.7/Extras/lib/python/matplotlib/mpl-data/fonts/pdfcorefonts/Courier-Oblique.afm'
p1546
aS'/System/Library/Frameworks/Python.framework/Versions/2.7/Extras/lib/python/matplotlib/mpl-data/fonts/afm/pcrro8a.afm'
p1547
aS'/System/Library/Frameworks/Python.framework/Versions/2.7/Extras/lib/python/matplotlib/mpl-data/fonts/pdfcorefonts/Courier.afm'
p1548
aS'/System/Library/Frameworks/Python.framework/Versions/2.7/Extras/lib/python/matplotlib/mpl-data/fonts/afm/ptmbi8a.afm'
p1549
aS'/System/Library/Frameworks/Python.framework/Versions/2.7/Extras/lib/python/matplotlib/mpl-data/fonts/afm/pagdo8a.afm'
p1550
aS'/System/Library/Frameworks/Python.framework/Versions/2.7/Extras/lib/python/matplotlib/mpl-data/fonts/pdfcorefonts/Times-BoldItalic.afm'
p1551
aS'/System/Library/Frameworks/Python.framework/Versions/2.7/Extras/lib/python/matplotlib/mpl-data/fonts/pdfcorefonts/Helvetica-BoldOblique.afm'
p1552
aS'/System/Library/Frameworks/Python.framework/Versions/2.7/Extras/lib/python/matplotlib/mpl-data/fonts/afm/pbkd8a.afm'
p1553
aS'/System/Library/Frameworks/Python.framework/Versions/2.7/Extras/lib/python/matplotlib/mpl-data/fonts/afm/pplr8a.afm'
p1554
aS'/System/Library/Frameworks/Python.framework/Versions/2.7/Extras/lib/python/matplotlib/mpl-data/fonts/afm/pagk8a.afm'
p1555
aS'/System/Library/Frameworks/Python.framework/Versions/2.7/Extras/lib/python/matplotlib/mpl-data/fonts/afm/putri8a.afm'
p1556
aS'/System/Library/Frameworks/Python.framework/Versions/2.7/Extras/lib/python/matplotlib/mpl-data/fonts/afm/pcrbo8a.afm'
p1557
aS'/System/Library/Frameworks/Python.framework/Versions/2.7/Extras/lib/python/matplotlib/mpl-data/fonts/afm/pcrb8a.afm'
p1558
aS'/System/Library/Frameworks/Python.framework/Versions/2.7/Extras/lib/python/matplotlib/mpl-data/fonts/afm/phvro8a.afm'
p1559
aS'/System/Library/Frameworks/Python.framework/Versions/2.7/Extras/lib/python/matplotlib/mpl-data/fonts/afm/pbkdi8a.afm'
p1560
aS'/System/Library/Frameworks/Python.framework/Versions/2.7/Extras/lib/python/matplotlib/mpl-data/fonts/pdfcorefonts/Times-Bold.afm'
p1561
aS'/System/Library/Frameworks/Python.framework/Versions/2.7/Extras/lib/python/matplotlib/mpl-data/fonts/afm/pplri8a.afm'
p1562
aS'/System/Library/Frameworks/Python.framework/Versions/2.7/Extras/lib/python/matplotlib/mpl-data/fonts/afm/pncb8a.afm'
p1563
aS'/System/Library/Frameworks/Python.framework/Versions/2.7/Extras/lib/python/matplotlib/mpl-data/fonts/afm/putb8a.afm'
p1564
aS'/System/Library/Frameworks/Python.framework/Versions/2.7/Extras/lib/python/matplotlib/mpl-data/fonts/afm/pncbi8a.afm'
p1565
aS'/System/Library/Frameworks/Python.framework/Versions/2.7/Extras/lib/python/matplotlib/mpl-data/fonts/afm/pbkli8a.afm'
p1566
aS'/System/Library/Frameworks/Python.framework/Versions/2.7/Extras/lib/python/matplotlib/mpl-data/fonts/afm/phvb8a.afm'
p1567
aS'/System/Library/Frameworks/Python.framework/Versions/2.7/Extras/lib/python/matplotlib/mpl-data/fonts/afm/pcrr8a.afm'
p1568
aS'/System/Library/Frameworks/Python.framework/Versions/2.7/Extras/lib/python/matplotlib/mpl-data/fonts/afm/cmsy10.afm'
p1569
aS'/System/Library/Frameworks/Python.framework/Versions/2.7/Extras/lib/python/matplotlib/mpl-data/fonts/afm/cmmi10.afm'
p1570
aS'/System/Library/Frameworks/Python.framework/Versions/2.7/Extras/lib/python/matplotlib/mpl-data/fonts/afm/pplbi8a.afm'
p1571
aS'/System/Library/Frameworks/Python.framework/Versions/2.7/Extras/lib/python/matplotlib/mpl-data/fonts/afm/cmex10.afm'
p1572
aS'/System/Library/Frameworks/Python.framework/Versions/2.7/Extras/lib/python/matplotlib/mpl-data/fonts/afm/pncri8a.afm'
p1573
aS'/System/Library/Frameworks/Python.framework/Versions/2.7/Extras/lib/python/matplotlib/mpl-data/fonts/afm/pagko8a.afm'
p1574
aS'/System/Library/Frameworks/Python.framework/Versions/2.7/Extras/lib/python/matplotlib/mpl-data/fonts/afm/pzcmi8a.afm'
p1575
aS'/System/Library/Frameworks/Python.framework/Versions/2.7/Extras/lib/python/matplotlib/mpl-data/fonts/pdfcorefonts/Courier-BoldOblique.afm'
p1576
aS'/System/Library/Frameworks/Python.framework/Versions/2.7/Extras/lib/python/matplotlib/mpl-data/fonts/afm/phvro8an.afm'
p1577
aS'/System/Library/Frameworks/Python.framework/Versions/2.7/Extras/lib/python/matplotlib/mpl-data/fonts/afm/pplb8a.afm'
p1578
aS'/System/Library/Frameworks/Python.framework/Versions/2.7/Extras/lib/python/matplotlib/mpl-data/fonts/afm/phvr8a.afm'
p1579
asS'afmlist'
p1580
(lp1581
g7
(g8
g9
NtRp1582
(dp1583
g12
g13
sg14
S'Helvetica'
p1584
sg16
I200
sg17
g13
sg18
g13
sg19
g1518
sg21
g22
sbag7
(g8
g9
NtRp1585
(dp1586
g12
g74
sg14
S'Utopia'
p1587
sg16
I700
sg17
g13
sg18
g13
sg19
g1521
sg21
g22
sbag7
(g8
g9
NtRp1588
(dp1589
g12
g13
sg14
S'ITC Bookman'
p1590
sg16
I200
sg17
g13
sg18
g13
sg19
g1522
sg21
g22
sbag7
(g8
g9
NtRp1591
(dp1592
g12
g74
sg14
S'Helvetica'
p1593
sg16
I700
sg17
g13
sg18
g13
sg19
g1523
sg21
g22
sbag7
(g8
g9
NtRp1594
(dp1595
g12
g13
sg14
S'Helvetica'
p1596
sg16
I700
sg17
g220
sg18
g13
sg19
g1524
sg21
g22
sbag7
(g8
g9
NtRp1597
(dp1598
g12
g13
sg14
S'Symbol'
p1599
sg16
I500
sg17
g13
sg18
g13
sg19
g1525
sg21
g22
sbag7
(g8
g9
NtRp1600
(dp1601
g12
g74
sg14
S'Helvetica'
p1602
sg16
I700
sg17
g220
sg18
g13
sg19
g1526
sg21
g22
sbag7
(g8
g9
NtRp1603
(dp1604
g12
g13
sg14
S'Times'
p1605
sg16
I500
sg17
g13
sg18
g13
sg19
g1527
sg21
g22
sbag7
(g8
g9
NtRp1606
(dp1607
g12
g13
sg14
S'New Century Schoolbook'
p1608
sg16
I500
sg17
g13
sg18
g13
sg19
g1528
sg21
g22
sbag7
(g8
g9
NtRp1609
(dp1610
g12
g13
sg14
S'ITC Zapf Dingbats'
p1611
sg16
I500
sg17
g13
sg18
g13
sg19
g1529
sg21
g22
sbag7
(g8
g9
NtRp1612
(dp1613
g12
g74
sg14
S'Helvetica'
p1614
sg16
I200
sg17
g13
sg18
g13
sg19
g1530
sg21
g22
sbag7
(g8
g9
NtRp1615
(dp1616
g12
g74
sg14
S'Times'
p1617
sg16
I500
sg17
g13
sg18
g13
sg19
g1531
sg21
g22
sbag7
(g8
g9
NtRp1618
(dp1619
g12
g13
sg14
S'Helvetica'
p1620
sg16
I500
sg17
g13
sg18
g13
sg19
g1532
sg21
g22
sbag7
(g8
g9
NtRp1621
(dp1622
g12
g13
sg14
S'Helvetica'
p1623
sg16
I500
sg17
g220
sg18
g13
sg19
g1533
sg21
g22
sbag7
(g8
g9
NtRp1624
(dp1625
g12
g13
sg14
S'Courier'
p1626
sg16
I700
sg17
g13
sg18
g13
sg19
g1534
sg21
g22
sbag7
(g8
g9
NtRp1627
(dp1628
g12
g13
sg14
S'Helvetica'
p1629
sg16
I700
sg17
g13
sg18
g13
sg19
g1535
sg21
g22
sbag7
(g8
g9
NtRp1630
(dp1631
g12
g13
sg14
S'Times'
p1632
sg16
I700
sg17
g13
sg18
g13
sg19
g1536
sg21
g22
sbag7
(g8
g9
NtRp1633
(dp1634
g12
g13
sg14
S'ITC Avant Garde Gothic'
p1635
sg16
I600
sg17
g13
sg18
g13
sg19
g1537
sg21
g22
sbag7
(g8
g9
NtRp1636
(dp1637
g12
g13
sg14
S'Symbol'
p1638
sg16
I500
sg17
g13
sg18
g13
sg19
g1538
sg21
g22
sbag7
(g8
g9
NtRp1639
(dp1640
g12
g13
sg14
S'ZapfDingbats'
p1641
sg16
I500
sg17
g13
sg18
g13
sg19
g1539
sg21
g22
sbag7
(g8
g9
NtRp1642
(dp1643
g12
g13
sg14
S'Utopia'
p1644
sg16
I400
sg17
g13
sg18
g13
sg19
g1540
sg21
g22
sbag7
(g8
g9
NtRp1645
(dp1646
g12
g13
sg14
S'Computer Modern'
p1647
sg16
I500
sg17
g13
sg18
g13
sg19
g1541
sg21
g22
sbag7
(g8
g9
NtRp1648
(dp1649
g12
g74
sg14
S'Times'
p1650
sg16
I500
sg17
g13
sg18
g13
sg19
g1542
sg21
g22
sbag7
(g8
g9
NtRp1651
(dp1652
g12
g13
sg14
S'Times'
p1653
sg16
I500
sg17
g13
sg18
g13
sg19
g1543
sg21
g22
sbag7
(g8
g9
NtRp1654
(dp1655
g12
g74
sg14
S'Helvetica'
p1656
sg16
I500
sg17
g13
sg18
g13
sg19
g1544
sg21
g22
sbag7
(g8
g9
NtRp1657
(dp1658
g12
g13
sg14
S'Computer Modern'
p1659
sg16
I500
sg17
g13
sg18
g13
sg19
g1545
sg21
g22
sbag7
(g8
g9
NtRp1660
(dp1661
g12
g74
sg14
S'Courier'
p1662
sg16
I500
sg17
g13
sg18
g13
sg19
g1546
sg21
g22
sbag7
(g8
g9
NtRp1663
(dp1664
g12
g74
sg14
S'Courier'
p1665
sg16
I500
sg17
g13
sg18
g13
sg19
g1547
sg21
g22
sbag7
(g8
g9
NtRp1666
(dp1667
g12
g13
sg14
S'Courier'
p1668
sg16
I500
sg17
g13
sg18
g13
sg19
g1548
sg21
g22
sbag7
(g8
g9
NtRp1669
(dp1670
g12
g74
sg14
S'Times'
p1671
sg16
I700
sg17
g13
sg18
g13
sg19
g1549
sg21
g22
sbag7
(g8
g9
NtRp1672
(dp1673
g12
g74
sg14
S'ITC Avant Garde Gothic'
p1674
sg16
I600
sg17
g13
sg18
g13
sg19
g1550
sg21
g22
sbag7
(g8
g9
NtRp1675
(dp1676
g12
g74
sg14
S'Times'
p1677
sg16
I700
sg17
g13
sg18
g13
sg19
g1551
sg21
g22
sbag7
(g8
g9
NtRp1678
(dp1679
g12
g74
sg14
S'Helvetica'
p1680
sg16
I700
sg17
g13
sg18
g13
sg19
g1552
sg21
g22
sbag7
(g8
g9
NtRp1681
(dp1682
g12
g13
sg14
S'ITC Bookman'
p1683
sg16
I600
sg17
g13
sg18
g13
sg19
g1553
sg21
g22
sbag7
(g8
g9
NtRp1684
(dp1685
g12
g13
sg14
S'Palatino'
p1686
sg16
I500
sg17
g13
sg18
g13
sg19
g1554
sg21
g22
sbag7
(g8
g9
NtRp1687
(dp1688
g12
g13
sg14
S'ITC Avant Garde Gothic'
p1689
sg16
I400
sg17
g13
sg18
g13
sg19
g1555
sg21
g22
sbag7
(g8
g9
NtRp1690
(dp1691
g12
g74
sg14
S'Utopia'
p1692
sg16
I400
sg17
g13
sg18
g13
sg19
g1556
sg21
g22
sbag7
(g8
g9
NtRp1693
(dp1694
g12
g74
sg14
S'Courier'
p1695
sg16
I700
sg17
g13
sg18
g13
sg19
g1557
sg21
g22
sbag7
(g8
g9
NtRp1696
(dp1697
g12
g13
sg14
S'Courier'
p1698
sg16
I700
sg17
g13
sg18
g13
sg19
g1558
sg21
g22
sbag7
(g8
g9
NtRp1699
(dp1700
g12
g74
sg14
S'Helvetica'
p1701
sg16
I500
sg17
g13
sg18
g13
sg19
g1559
sg21
g22
sbag7
(g8
g9
NtRp1702
(dp1703
g12
g74
sg14
S'ITC Bookman'
p1704
sg16
I600
sg17
g13
sg18
g13
sg19
g1560
sg21
g22
sbag7
(g8
g9
NtRp1705
(dp1706
g12
g13
sg14
S'Times'
p1707
sg16
I700
sg17
g13
sg18
g13
sg19
g1561
sg21
g22
sbag7
(g8
g9
NtRp1708
(dp1709
g12
g74
sg14
S'Palatino'
p1710
sg16
I500
sg17
g13
sg18
g13
sg19
g1562
sg21
g22
sbag7
(g8
g9
NtRp1711
(dp1712
g12
g13
sg14
S'New Century Schoolbook'
p1713
sg16
I700
sg17
g13
sg18
g13
sg19
g1563
sg21
g22
sbag7
(g8
g9
NtRp1714
(dp1715
g12
g13
sg14
S'Utopia'
p1716
sg16
I700
sg17
g13
sg18
g13
sg19
g1564
sg21
g22
sbag7
(g8
g9
NtRp1717
(dp1718
g12
g74
sg14
S'New Century Schoolbook'
p1719
sg16
I700
sg17
g13
sg18
g13
sg19
g1565
sg21
g22
sbag7
(g8
g9
NtRp1720
(dp1721
g12
g74
sg14
S'ITC Bookman'
p1722
sg16
I200
sg17
g13
sg18
g13
sg19
g1566
sg21
g22
sbag7
(g8
g9
NtRp1723
(dp1724
g12
g13
sg14
S'Helvetica'
p1725
sg16
I700
sg17
g13
sg18
g13
sg19
g1567
sg21
g22
sbag7
(g8
g9
NtRp1726
(dp1727
g12
g13
sg14
S'Courier'
p1728
sg16
I500
sg17
g13
sg18
g13
sg19
g1568
sg21
g22
sbag7
(g8
g9
NtRp1729
(dp1730
g12
g74
sg14
S'Computer Modern'
p1731
sg16
I500
sg17
g13
sg18
g13
sg19
g1569
sg21
g22
sbag7
(g8
g9
NtRp1732
(dp1733
g12
g74
sg14
S'Computer Modern'
p1734
sg16
I500
sg17
g13
sg18
g13
sg19
g1570
sg21
g22
sbag7
(g8
g9
NtRp1735
(dp1736
g12
g74
sg14
S'Palatino'
p1737
sg16
I700
sg17
g13
sg18
g13
sg19
g1571
sg21
g22
sbag7
(g8
g9
NtRp1738
(dp1739
g12
g13
sg14
S'Computer Modern'
p1740
sg16
I500
sg17
g13
sg18
g13
sg19
g1572
sg21
g22
sbag7
(g8
g9
NtRp1741
(dp1742
g12
g74
sg14
S'New Century Schoolbook'
p1743
sg16
I500
sg17
g13
sg18
g13
sg19
g1573
sg21
g22
sbag7
(g8
g9
NtRp1744
(dp1745
g12
g74
sg14
S'ITC Avant Garde Gothic'
p1746
sg16
I400
sg17
g13
sg18
g13
sg19
g1574
sg21
g22
sbag7
(g8
g9
NtRp1747
(dp1748
g12
g74
sg14
S'ITC Zapf Chancery'
p1749
sg16
I500
sg17
g13
sg18
g13
sg19
g1575
sg21
g22
sbag7
(g8
g9
NtRp1750
(dp1751
g12
g74
sg14
S'Courier'
p1752
sg16
I700
sg17
g13
sg18
g13
sg19
g1576
sg21
g22
sbag7
(g8
g9
NtRp1753
(dp1754
g12
g74
sg14
S'Helvetica'
p1755
sg16
I500
sg17
g220
sg18
g13
sg19
g1577
sg21
g22
sbag7
(g8
g9
NtRp1756
(dp1757
g12
g13
sg14
S'Palatino'
p1758
sg16
I700
sg17
g13
sg18
g13
sg19
g1578
sg21
g22
sbag7
(g8
g9
NtRp1759
(dp1760
g12
g13
sg14
S'Helvetica'
p1761
sg16
I500
sg17
g13
sg18
g13
sg19
g1579
sg21
g22
sbasb.