ccopy_reg
_reconstructor
p1
(cmatplotlib.font_manager
FontManager
p2
c__builtin__
object
p3
NtRp4
(dp5
S'ttflist'
p6
(lp7
g1
(cmatplotlib.font_manager
FontEntry
p8
g3
NtRp9
(dp10
S'style'
p11
Vnormal
p12
sS'name'
p13
S'STIXSizeFourSym'
p14
sS'weight'
p15
I400
sS'stretch'
p16
g12
sS'variant'
p17
g12
sS'fname'
p18
V/usr/local/nest-python-2.7.8-Darwin-x86_64-20140826/Python.framework/Versions/2.7/lib/python2.7/site-packages/matplotlib/mpl-data/fonts/ttf/STIXSizFourSymReg.ttf
p19
sS'size'
p20
Vscalable
p21
sbag1
(g8
g3
NtRp22
(dp23
g11
g12
sg13
S'Bitstream Vera Sans Mono'
p24
sg15
I400
sg16
g12
sg17
g12
sg18
V/usr/local/nest-python-2.7.8-Darwin-x86_64-20140826/Python.framework/Versions/2.7/lib/python2.7/site-packages/matplotlib/mpl-data/fonts/ttf/VeraMono.ttf
p25
sg20
g21
sbag1
(g8
g3
NtRp26
(dp27
g11
g12
sg13
S'cmsy10'
p28
sg15
I400
sg16
g12
sg17
g12
sg18
V/usr/local/nest-python-2.7.8-Darwin-x86_64-20140826/Python.framework/Versions/2.7/lib/python2.7/site-packages/matplotlib/mpl-data/fonts/ttf/cmsy10.ttf
p29
sg20
g21
sbag1
(g8
g3
NtRp30
(dp31
g11
g12
sg13
S'STIXSizeThreeSym'
p32
sg15
I400
sg16
g12
sg17
g12
sg18
V/usr/local/nest-python-2.7.8-Darwin-x86_64-20140826/Python.framework/Versions/2.7/lib/python2.7/site-packages/matplotlib/mpl-data/fonts/ttf/STIXSizThreeSymReg.ttf
p33
sg20
g21
sbag1
(g8
g3
NtRp34
(dp35
g11
g12
sg13
S'STIXSizeFourSym'
p36
sg15
I700
sg16
g12
sg17
g12
sg18
V/usr/local/nest-python-2.7.8-Darwin-x86_64-20140826/Python.framework/Versions/2.7/lib/python2.7/site-packages/matplotlib/mpl-data/fonts/ttf/STIXSizFourSymBol.ttf
p37
sg20
g21
sbag1
(g8
g3
NtRp38
(dp39
g11
g12
sg13
S'STIXNonUnicode'
p40
sg15
I400
sg16
g12
sg17
g12
sg18
V/usr/local/nest-python-2.7.8-Darwin-x86_64-20140826/Python.framework/Versions/2.7/lib/python2.7/site-packages/matplotlib/mpl-data/fonts/ttf/STIXNonUni.ttf
p41
sg20
g21
sbag1
(g8
g3
NtRp42
(dp43
g11
g12
sg13
S'Bitstream Vera Sans'
p44
sg15
I700
sg16
g12
sg17
g12
sg18
V/usr/local/nest-python-2.7.8-Darwin-x86_64-20140826/Python.framework/Versions/2.7/lib/python2.7/site-packages/matplotlib/mpl-data/fonts/ttf/VeraBd.ttf
p45
sg20
g21
sbag1
(g8
g3
NtRp46
(dp47
g11
Vitalic
p48
sg13
S'STIXGeneral'
p49
sg15
I700
sg16
g12
sg17
g12
sg18
V/usr/local/nest-python-2.7.8-Darwin-x86_64-20140826/Python.framework/Versions/2.7/lib/python2.7/site-packages/matplotlib/mpl-data/fonts/ttf/STIXGeneralBolIta.ttf
p50
sg20
g21
sbag1
(g8
g3
NtRp51
(dp52
g11
g12
sg13
S'STIXNonUnicode'
p53
sg15
I700
sg16
g12
sg17
g12
sg18
V/usr/local/nest-python-2.7.8-Darwin-x86_64-20140826/Python.framework/Versions/2.7/lib/python2.7/site-packages/matplotlib/mpl-data/fonts/ttf/STIXNonUniBol.ttf
p54
sg20
g21
sbag1
(g8
g3
NtRp55
(dp56
g11
g48
sg13
S'STIXNonUnicode'
p57
sg15
I400
sg16
g12
sg17
g12
sg18
V/usr/local/nest-python-2.7.8-Darwin-x86_64-20140826/Python.framework/Versions/2.7/lib/python2.7/site-packages/matplotlib/mpl-data/fonts/ttf/STIXNonUniIta.ttf
p58
sg20
g21
sbag1
(g8
g3
NtRp59
(dp60
g11
g12
sg13
S'STIXSizeFiveSym'
p61
sg15
I400
sg16
g12
sg17
g12
sg18
V/usr/local/nest-python-2.7.8-Darwin-x86_64-20140826/Python.framework/Versions/2.7/lib/python2.7/site-packages/matplotlib/mpl-data/fonts/ttf/STIXSizFiveSymReg.ttf
p62
sg20
g21
sbag1
(g8
g3
NtRp63
(dp64
g11
g12
sg13
S'STIXSizeOneSym'
p65
sg15
I400
sg16
g12
sg17
g12
sg18
V/usr/local/nest-python-2.7.8-Darwin-x86_64-20140826/Python.framework/Versions/2.7/lib/python2.7/site-packages/matplotlib/mpl-data/fonts/ttf/STIXSizOneSymReg.ttf
p66
sg20
g21
sbag1
(g8
g3
NtRp67
(dp68
g11
Voblique
p69
sg13
S'Bitstream Vera Sans Mono'
p70
sg15
I700
sg16
g12
sg17
g12
sg18
V/usr/local/nest-python-2.7.8-Darwin-x86_64-20140826/Python.framework/Versions/2.7/lib/python2.7/site-packages/matplotlib/mpl-data/fonts/ttf/VeraMoBI.ttf
p71
sg20
g21
sbag1
(g8
g3
NtRp72
(dp73
g11
g12
sg13
S'STIXGeneral'
p74
sg15
I700
sg16
g12
sg17
g12
sg18
V/usr/local/nest-python-2.7.8-Darwin-x86_64-20140826/Python.framework/Versions/2.7/lib/python2.7/site-packages/matplotlib/mpl-data/fonts/ttf/STIXGeneralBol.ttf
p75
sg20
g21
sbag1
(g8
g3
NtRp76
(dp77
g11
g48
sg13
S'STIXGeneral'
p78
sg15
I400
sg16
g12
sg17
g12
sg18
V/usr/local/nest-python-2.7.8-Darwin-x86_64-20140826/Python.framework/Versions/2.7/lib/python2.7/site-packages/matplotlib/mpl-data/fonts/ttf/STIXGeneralItalic.ttf
p79
sg20
g21
sbag1
(g8
g3
NtRp80
(dp81
g11
g12
sg13
S'STIXSizeTwoSym'
p82
sg15
I400
sg16
g12
sg17
g12
sg18
V/usr/local/nest-python-2.7.8-Darwin-x86_64-20140826/Python.framework/Versions/2.7/lib/python2.7/site-packages/matplotlib/mpl-data/fonts/ttf/STIXSizTwoSymReg.ttf
p83
sg20
g21
sbag1
(g8
g3
NtRp84
(dp85
g11
g12
sg13
S'cmr10'
p86
sg15
I400
sg16
g12
sg17
g12
sg18
V/usr/local/nest-python-2.7.8-Darwin-x86_64-20140826/Python.framework/Versions/2.7/lib/python2.7/site-packages/matplotlib/mpl-data/fonts/ttf/cmr10.ttf
p87
sg20
g21
sbag1
(g8
g3
NtRp88
(dp89
g11
g12
sg13
S'Bitstream Vera Serif'
p90
sg15
I700
sg16
g12
sg17
g12
sg18
V/usr/local/nest-python-2.7.8-Darwin-x86_64-20140826/Python.framework/Versions/2.7/lib/python2.7/site-packages/matplotlib/mpl-data/fonts/ttf/VeraSeBd.ttf
p91
sg20
g21
sbag1
(g8
g3
NtRp92
(dp93
g11
g12
sg13
S'STIXGeneral'
p94
sg15
I400
sg16
g12
sg17
g12
sg18
V/usr/local/nest-python-2.7.8-Darwin-x86_64-20140826/Python.framework/Versions/2.7/lib/python2.7/site-packages/matplotlib/mpl-data/fonts/ttf/STIXGeneral.ttf
p95
sg20
g21
sbag1
(g8
g3
NtRp96
(dp97
g11
g69
sg13
S'Bitstream Vera Sans'
p98
sg15
I700
sg16
g12
sg17
g12
sg18
V/usr/local/nest-python-2.7.8-Darwin-x86_64-20140826/Python.framework/Versions/2.7/lib/python2.7/site-packages/matplotlib/mpl-data/fonts/ttf/VeraBI.ttf
p99
sg20
g21
sbag1
(g8
g3
NtRp100
(dp101
g11
g12
sg13
S'Bitstream Vera Serif'
p102
sg15
I400
sg16
g12
sg17
g12
sg18
V/usr/local/nest-python-2.7.8-Darwin-x86_64-20140826/Python.framework/Versions/2.7/lib/python2.7/site-packages/matplotlib/mpl-data/fonts/ttf/VeraSe.ttf
p103
sg20
g21
sbag1
(g8
g3
NtRp104
(dp105
g11
g69
sg13
S'Bitstream Vera Sans'
p106
sg15
I400
sg16
g12
sg17
g12
sg18
V/usr/local/nest-python-2.7.8-Darwin-x86_64-20140826/Python.framework/Versions/2.7/lib/python2.7/site-packages/matplotlib/mpl-data/fonts/ttf/VeraIt.ttf
p107
sg20
g21
sbag1
(g8
g3
NtRp108
(dp109
g11
g12
sg13
S'cmex10'
p110
sg15
I400
sg16
g12
sg17
g12
sg18
V/usr/local/nest-python-2.7.8-Darwin-x86_64-20140826/Python.framework/Versions/2.7/lib/python2.7/site-packages/matplotlib/mpl-data/fonts/ttf/cmex10.ttf
p111
sg20
g21
sbag1
(g8
g3
NtRp112
(dp113
g11
g12
sg13
S'STIXSizeTwoSym'
p114
sg15
I700
sg16
g12
sg17
g12
sg18
V/usr/local/nest-python-2.7.8-Darwin-x86_64-20140826/Python.framework/Versions/2.7/lib/python2.7/site-packages/matplotlib/mpl-data/fonts/ttf/STIXSizTwoSymBol.ttf
p115
sg20
g21
sbag1
(g8
g3
NtRp116
(dp117
g11
g12
sg13
S'STIXSizeThreeSym'
p118
sg15
I700
sg16
g12
sg17
g12
sg18
V/usr/local/nest-python-2.7.8-Darwin-x86_64-20140826/Python.framework/Versions/2.7/lib/python2.7/site-packages/matplotlib/mpl-data/fonts/ttf/STIXSizThreeSymBol.ttf
p119
sg20
g21
sbag1
(g8
g3
NtRp120
(dp121
g11
g12
sg13
S'cmtt10'
p122
sg15
I400
sg16
g12
sg17
g12
sg18
V/usr/local/nest-python-2.7.8-Darwin-x86_64-20140826/Python.framework/Versions/2.7/lib/python2.7/site-packages/matplotlib/mpl-data/fonts/ttf/cmtt10.ttf
p123
sg20
g21
sbag1
(g8
g3
NtRp124
(dp125
g11
g12
sg13
S'Bitstream Vera Sans'
p126
sg15
I400
sg16
g12
sg17
g12
sg18
V/usr/local/nest-python-2.7.8-Darwin-x86_64-20140826/Python.framework/Versions/2.7/lib/python2.7/site-packages/matplotlib/mpl-data/fonts/ttf/Vera.ttf
p127
sg20
g21
sbag1
(g8
g3
NtRp128
(dp129
g11
g12
sg13
S'cmb10'
p130
sg15
I400
sg16
g12
sg17
g12
sg18
V/usr/local/nest-python-2.7.8-Darwin-x86_64-20140826/Python.framework/Versions/2.7/lib/python2.7/site-packages/matplotlib/mpl-data/fonts/ttf/cmb10.ttf
p131
sg20
g21
sbag1
(g8
g3
NtRp132
(dp133
g11
g12
sg13
S'cmss10'
p134
sg15
I400
sg16
g12
sg17
g12
sg18
V/usr/local/nest-python-2.7.8-Darwin-x86_64-20140826/Python.framework/Versions/2.7/lib/python2.7/site-packages/matplotlib/mpl-data/fonts/ttf/cmss10.ttf
p135
sg20
g21
sbag1
(g8
g3
NtRp136
(dp137
g11
g69
sg13
S'Bitstream Vera Sans Mono'
p138
sg15
I400
sg16
g12
sg17
g12
sg18
V/usr/local/nest-python-2.7.8-Darwin-x86_64-20140826/Python.framework/Versions/2.7/lib/python2.7/site-packages/matplotlib/mpl-data/fonts/ttf/VeraMoIt.ttf
p139
sg20
g21
sbag1
(g8
g3
NtRp140
(dp141
g11
g12
sg13
S'Bitstream Vera Sans Mono'
p142
sg15
I700
sg16
g12
sg17
g12
sg18
V/usr/local/nest-python-2.7.8-Darwin-x86_64-20140826/Python.framework/Versions/2.7/lib/python2.7/site-packages/matplotlib/mpl-data/fonts/ttf/VeraMoBd.ttf
p143
sg20
g21
sbag1
(g8
g3
NtRp144
(dp145
g11
g12
sg13
S'STIXSizeOneSym'
p146
sg15
I700
sg16
g12
sg17
g12
sg18
V/usr/local/nest-python-2.7.8-Darwin-x86_64-20140826/Python.framework/Versions/2.7/lib/python2.7/site-packages/matplotlib/mpl-data/fonts/ttf/STIXSizOneSymBol.ttf
p147
sg20
g21
sbag1
(g8
g3
NtRp148
(dp149
g11
g12
sg13
S'cmmi10'
p150
sg15
I400
sg16
g12
sg17
g12
sg18
V/usr/local/nest-python-2.7.8-Darwin-x86_64-20140826/Python.framework/Versions/2.7/lib/python2.7/site-packages/matplotlib/mpl-data/fonts/ttf/cmmi10.ttf
p151
sg20
g21
sbag1
(g8
g3
NtRp152
(dp153
g11
g48
sg13
S'STIXNonUnicode'
p154
sg15
I700
sg16
g12
sg17
g12
sg18
V/usr/local/nest-python-2.7.8-Darwin-x86_64-20140826/Python.framework/Versions/2.7/lib/python2.7/site-packages/matplotlib/mpl-data/fonts/ttf/STIXNonUniBolIta.ttf
p155
sg20
g21
sbag1
(g8
g3
NtRp156
(dp157
g11
g12
sg13
S'Akkurat Pro'
p158
sg15
I700
sg16
g12
sg17
g12
sg18
V/Users/adrianwan/Library/Fonts/AkkuratPro-Bold.otf
p159
sg20
g21
sbag1
(g8
g3
NtRp160
(dp161
g11
g48
sg13
S'Open Sans'
p162
sg15
I400
sg16
g12
sg17
g12
sg18
V/Library/Fonts/OpenSans-Italic.ttf
p163
sg20
g21
sbag1
(g8
g3
NtRp164
(dp165
g11
g12
sg13
S'System Font'
p166
sg15
I400
sg16
g12
sg17
g12
sg18
V/System/Library/Fonts/SFNSDisplay-Thin.otf
p167
sg20
g21
sbag1
(g8
g3
NtRp168
(dp169
g11
g12
sg13
S'Hoefler Text'
p170
sg15
I400
sg16
g12
sg17
g12
sg18
V/Library/Fonts/Hoefler Text Ornaments.ttf
p171
sg20
g21
sbag1
(g8
g3
NtRp172
(dp173
g11
g48
sg13
S'Roboto'
p174
sg15
I400
sg16
g12
sg17
g12
sg18
V/Library/Fonts/Roboto-Italic.ttf
p175
sg20
g21
sbag1
(g8
g3
NtRp176
(dp177
g11
g12
sg13
S'Times New Roman'
p178
sg15
I500
sg16
g12
sg17
g12
sg18
V/Library/Fonts/Times New Roman.ttf
p179
sg20
g21
sbag1
(g8
g3
NtRp180
(dp181
g11
g12
sg13
S'Roboto'
p182
sg15
I500
sg16
g12
sg17
g12
sg18
V/Library/Fonts/Roboto-Medium.ttf
p183
sg20
g21
sbag1
(g8
g3
NtRp184
(dp185
g11
g12
sg13
S'Osaka'
p186
sg15
I400
sg16
g12
sg17
g12
sg18
V/Library/Fonts/Osaka.ttf
p187
sg20
g21
sbag1
(g8
g3
NtRp188
(dp189
g11
g12
sg13
S'Verdana'
p190
sg15
I700
sg16
g12
sg17
g12
sg18
V/Library/Fonts/Verdana Bold.ttf
p191
sg20
g21
sbag1
(g8
g3
NtRp192
(dp193
g11
g12
sg13
S'System Font'
p194
sg15
I400
sg16
g12
sg17
g12
sg18
V/System/Library/Fonts/SFNSDisplay-Bold.otf
p195
sg20
g21
sbag1
(g8
g3
NtRp196
(dp197
g11
g12
sg13
S'Arial Unicode MS'
p198
sg15
I400
sg16
g12
sg17
g12
sg18
V/Library/Fonts/Arial Unicode.ttf
p199
sg20
g21
sbag1
(g8
g3
NtRp200
(dp201
g11
g12
sg13
S'STIXSizeThreeSym'
p202
sg15
I400
sg16
g12
sg17
g12
sg18
V/Library/Fonts/STIXSizThreeSymReg.otf
p203
sg20
g21
sbag1
(g8
g3
NtRp204
(dp205
g11
g12
sg13
S'Source Code Pro for Powerline'
p206
sg15
I900
sg16
g12
sg17
g12
sg18
V/Users/adrianwan/Library/Fonts/Sauce Code Powerline Black.otf
p207
sg20
g21
sbag1
(g8
g3
NtRp208
(dp209
g11
g12
sg13
S'DIN Condensed'
p210
sg15
I700
sg16
Vcondensed
p211
sg17
g12
sg18
V/Library/Fonts/DIN Condensed Bold.ttf
p212
sg20
g21
sbag1
(g8
g3
NtRp213
(dp214
g11
g12
sg13
S'Droid Sans Mono Dotted for Powerline'
p215
sg15
I400
sg16
g12
sg17
g12
sg18
V/Users/adrianwan/Library/Fonts/Droid Sans Mono Dotted for Powerline.ttf
p216
sg20
g21
sbag1
(g8
g3
NtRp217
(dp218
g11
g12
sg13
S'Ayuthaya'
p219
sg15
I400
sg16
g12
sg17
g12
sg18
V/Library/Fonts/Ayuthaya.ttf
p220
sg20
g21
sbag1
(g8
g3
NtRp221
(dp222
g11
g12
sg13
S'System Font'
p223
sg15
I400
sg16
g12
sg17
g12
sg18
V/System/Library/Fonts/SFNSText-HeavyItalic.otf
p224
sg20
g21
sbag1
(g8
g3
NtRp225
(dp226
g11
g69
sg13
S'Hack'
p227
sg15
I700
sg16
g12
sg17
g12
sg18
V/Users/adrianwan/Library/Fonts/Hack-BoldOblique.ttf
p228
sg20
g21
sbag1
(g8
g3
NtRp229
(dp230
g11
g12
sg13
S'LiSong Pro'
p231
sg15
I400
sg16
g12
sg17
g12
sg18
V/Library/Fonts/\u5137\u5b8b Pro.ttf
p232
sg20
g21
sbag1
(g8
g3
NtRp233
(dp234
g11
g12
sg13
S'Arial'
p235
sg15
I400
sg16
g12
sg17
g12
sg18
V/Library/Fonts/Arial.ttf
p236
sg20
g21
sbag1
(g8
g3
NtRp237
(dp238
g11
g12
sg13
S'Liberation Mono for Powerline'
p239
sg15
I700
sg16
g12
sg17
g12
sg18
V/Users/adrianwan/Library/Fonts/Literation Mono Powerline Bold.ttf
p240
sg20
g21
sbag1
(g8
g3
NtRp241
(dp242
g11
g12
sg13
S'AppleGothic'
p243
sg15
I400
sg16
g12
sg17
g12
sg18
V/Library/Fonts/AppleGothic.ttf
p244
sg20
g21
sbag1
(g8
g3
NtRp245
(dp246
g11
g12
sg13
S'Source Code Pro for Powerline'
p247
sg15
I200
sg16
g12
sg17
g12
sg18
V/Users/adrianwan/Library/Fonts/Sauce Code Powerline Light.otf
p248
sg20
g21
sbag1
(g8
g3
NtRp249
(dp250
g11
g12
sg13
S'YuGothic'
p251
sg15
I500
sg16
g12
sg17
g12
sg18
V/Library/Fonts/Yu Gothic Medium.otf
p252
sg20
g21
sbag1
(g8
g3
NtRp253
(dp254
g11
g12
sg13
S'Fira Mono for Powerline'
p255
sg15
I400
sg16
g12
sg17
g12
sg18
V/Users/adrianwan/Library/Fonts/FuraMono-Regular Powerline.otf
p256
sg20
g21
sbag1
(g8
g3
NtRp257
(dp258
g11
g12
sg13
S'Arial Narrow'
p259
sg15
I400
sg16
g211
sg17
g12
sg18
V/Library/Fonts/Arial Narrow.ttf
p260
sg20
g21
sbag1
(g8
g3
NtRp261
(dp262
g11
g12
sg13
S'Meslo LG M DZ for Powerline'
p263
sg15
I400
sg16
g12
sg17
g12
sg18
V/Users/adrianwan/Library/Fonts/Meslo LG M DZ Regular for Powerline.otf
p264
sg20
g21
sbag1
(g8
g3
NtRp265
(dp266
g11
g48
sg13
S'Roboto'
p267
sg15
I200
sg16
g12
sg17
g12
sg18
V/Library/Fonts/Roboto-LightItalic.ttf
p268
sg20
g21
sbag1
(g8
g3
NtRp269
(dp270
g11
g12
sg13
S'AppleMyungjo'
p271
sg15
I400
sg16
g12
sg17
g12
sg18
V/Library/Fonts/AppleMyungjo.ttf
p272
sg20
g21
sbag1
(g8
g3
NtRp273
(dp274
g11
g12
sg13
S'Meslo LG S for Powerline'
p275
sg15
I400
sg16
g12
sg17
g12
sg18
V/Users/adrianwan/Library/Fonts/Meslo LG S Regular for Powerline.otf
p276
sg20
g21
sbag1
(g8
g3
NtRp277
(dp278
g11
g12
sg13
S'Mishafi Gold'
p279
sg15
I400
sg16
g12
sg17
g12
sg18
V/Library/Fonts/Mishafi Gold.ttf
p280
sg20
g21
sbag1
(g8
g3
NtRp281
(dp282
g11
g48
sg13
S'Roboto Condensed'
p283
sg15
I200
sg16
g211
sg17
g12
sg18
V/Library/Fonts/RobotoCondensed-LightItalic.ttf
p284
sg20
g21
sbag1
(g8
g3
NtRp285
(dp286
g11
g12
sg13
S'Akkurat Pro'
p287
sg15
I200
sg16
g12
sg17
g12
sg18
V/Users/adrianwan/Library/Fonts/AkkuratPro-Light.otf
p288
sg20
g21
sbag1
(g8
g3
NtRp289
(dp290
g11
g12
sg13
S'Zapf Dingbats'
p291
sg15
I400
sg16
g12
sg17
g12
sg18
V/System/Library/Fonts/ZapfDingbats.ttf
p292
sg20
g21
sbag1
(g8
g3
NtRp293
(dp294
g11
g48
sg13
S'Roboto'
p295
sg15
I400
sg16
g12
sg17
g12
sg18
V/Library/Fonts/Roboto-ThinItalic.ttf
p296
sg20
g21
sbag1
(g8
g3
NtRp297
(dp298
g11
g12
sg13
S'STIXIntegralsD'
p299
sg15
I700
sg16
g12
sg17
g12
sg18
V/Library/Fonts/STIXIntDBol.otf
p300
sg20
g21
sbag1
(g8
g3
NtRp301
(dp302
g11
g12
sg13
S'System Font'
p303
sg15
I400
sg16
g12
sg17
g12
sg18
V/System/Library/Fonts/SFNSText-BoldItalicG2.otf
p304
sg20
g21
sbag1
(g8
g3
NtRp305
(dp306
g11
g12
sg13
S'System Font'
p307
sg15
I400
sg16
g12
sg17
g12
sg18
V/System/Library/Fonts/SFNSDisplay-Semibold.otf
p308
sg20
g21
sbag1
(g8
g3
NtRp309
(dp310
g11
g12
sg13
S'DIN Alternate'
p311
sg15
I700
sg16
g12
sg17
g12
sg18
V/Library/Fonts/DIN Alternate Bold.ttf
p312
sg20
g21
sbag1
(g8
g3
NtRp313
(dp314
g11
g12
sg13
S'Source Code Pro for Powerline'
p315
sg15
I700
sg16
g12
sg17
g12
sg18
V/Users/adrianwan/Library/Fonts/Sauce Code Powerline Semibold.otf
p316
sg20
g21
sbag1
(g8
g3
NtRp317
(dp318
g11
g12
sg13
S'STIXSizeThreeSym'
p319
sg15
I700
sg16
g12
sg17
g12
sg18
V/Library/Fonts/STIXSizThreeSymBol.otf
p320
sg20
g21
sbag1
(g8
g3
NtRp321
(dp322
g11
g12
sg13
S'Roboto Slab'
p323
sg15
I400
sg16
g12
sg17
g12
sg18
V/Library/Fonts/RobotoSlab-Thin.ttf
p324
sg20
g21
sbag1
(g8
g3
NtRp325
(dp326
g11
g12
sg13
S'Courier New'
p327
sg15
I400
sg16
g12
sg17
g12
sg18
V/Library/Fonts/Courier New.ttf
p328
sg20
g21
sbag1
(g8
g3
NtRp329
(dp330
g11
g48
sg13
S'Arial Narrow'
p331
sg15
I700
sg16
g211
sg17
g12
sg18
V/Library/Fonts/Arial Narrow Bold Italic.ttf
p332
sg20
g21
sbag1
(g8
g3
NtRp333
(dp334
g11
g12
sg13
S'Luminari'
p335
sg15
I400
sg16
g12
sg17
g12
sg18
V/Library/Fonts/Luminari.ttf
p336
sg20
g21
sbag1
(g8
g3
NtRp337
(dp338
g11
g12
sg13
S'Zapfino'
p339
sg15
I400
sg16
g12
sg17
g12
sg18
V/Library/Fonts/Zapfino.ttf
p340
sg20
g21
sbag1
(g8
g3
NtRp341
(dp342
g11
g12
sg13
S'DejaVu Sans Mono for Powerline'
p343
sg15
I400
sg16
g12
sg17
g12
sg18
V/Users/adrianwan/Library/Fonts/DejaVu Sans Mono for Powerline.ttf
p344
sg20
g21
sbag1
(g8
g3
NtRp345
(dp346
g11
g12
sg13
S'Arial Narrow'
p347
sg15
I700
sg16
g211
sg17
g12
sg18
V/Library/Fonts/Arial Narrow Bold.ttf
p348
sg20
g21
sbag1
(g8
g3
NtRp349
(dp350
g11
g48
sg13
S'Times New Roman'
p351
sg15
I500
sg16
g12
sg17
g12
sg18
V/Library/Fonts/Times New Roman Italic.ttf
p352
sg20
g21
sbag1
(g8
g3
NtRp353
(dp354
g11
g12
sg13
S'Krungthep'
p355
sg15
I400
sg16
g12
sg17
g12
sg18
V/Library/Fonts/Krungthep.ttf
p356
sg20
g21
sbag1
(g8
g3
NtRp357
(dp358
g11
g48
sg13
S'Roboto Condensed'
p359
sg15
I700
sg16
g211
sg17
g12
sg18
V/Library/Fonts/RobotoCondensed-BoldItalic.ttf
p360
sg20
g21
sbag1
(g8
g3
NtRp361
(dp362
g11
g12
sg13
S'System Font'
p363
sg15
I400
sg16
g12
sg17
g12
sg18
V/System/Library/Fonts/SFNSText-RegularG2.otf
p364
sg20
g21
sbag1
(g8
g3
NtRp365
(dp366
g11
g12
sg13
S'Inconsolata for Powerline'
p367
sg15
I400
sg16
g12
sg17
g12
sg18
V/Users/adrianwan/Library/Fonts/Inconsolata for Powerline.otf
p368
sg20
g21
sbag1
(g8
g3
NtRp369
(dp370
g11
g12
sg13
S'Georgia'
p371
sg15
I400
sg16
g12
sg17
g12
sg18
V/Library/Fonts/Georgia.ttf
p372
sg20
g21
sbag1
(g8
g3
NtRp373
(dp374
g11
g12
sg13
S'System Font'
p375
sg15
I400
sg16
g12
sg17
g12
sg18
V/System/Library/Fonts/SFNSText-Medium.otf
p376
sg20
g21
sbag1
(g8
g3
NtRp377
(dp378
g11
g12
sg13
S'STIXIntegralsSm'
p379
sg15
I700
sg16
g12
sg17
g12
sg18
V/Library/Fonts/STIXIntSmBol.otf
p380
sg20
g21
sbag1
(g8
g3
NtRp381
(dp382
g11
g12
sg13
S'Diwan Thuluth'
p383
sg15
I400
sg16
g12
sg17
g12
sg18
V/Library/Fonts/Diwan Thuluth.ttf
p384
sg20
g21
sbag1
(g8
g3
NtRp385
(dp386
g11
g12
sg13
S'Trebuchet MS'
p387
sg15
I700
sg16
g12
sg17
g12
sg18
V/Library/Fonts/Trebuchet MS Bold.ttf
p388
sg20
g21
sbag1
(g8
g3
NtRp389
(dp390
g11
g12
sg13
S'DejaVu Sans Mono for Powerline'
p391
sg15
I700
sg16
g12
sg17
g12
sg18
V/Users/adrianwan/Library/Fonts/DejaVu Sans Mono Bold for Powerline.ttf
p392
sg20
g21
sbag1
(g8
g3
NtRp393
(dp394
g11
g48
sg13
S'Roboto'
p395
sg15
I900
sg16
g12
sg17
g12
sg18
V/Library/Fonts/Roboto-BlackItalic.ttf
p396
sg20
g21
sbag1
(g8
g3
NtRp397
(dp398
g11
g12
sg13
S'System Font'
p399
sg15
I400
sg16
g12
sg17
g12
sg18
V/System/Library/Fonts/SFNSText-BoldG1.otf
p400
sg20
g21
sbag1
(g8
g3
NtRp401
(dp402
g11
g12
sg13
S'Fira Mono Medium for Powerline'
p403
sg15
I500
sg16
g12
sg17
g12
sg18
V/Users/adrianwan/Library/Fonts/FuraMono-Medium Powerline.otf
p404
sg20
g21
sbag1
(g8
g3
NtRp405
(dp406
g11
g12
sg13
S'Roboto Slab'
p407
sg15
I200
sg16
g12
sg17
g12
sg18
V/Library/Fonts/RobotoSlab-Light.ttf
p408
sg20
g21
sbag1
(g8
g3
NtRp409
(dp410
g11
g12
sg13
S'Bradley Hand'
p411
sg15
I700
sg16
g12
sg17
g12
sg18
V/Library/Fonts/Bradley Hand Bold.ttf
p412
sg20
g21
sbag1
(g8
g3
NtRp413
(dp414
g11
g12
sg13
S'Roboto Mono'
p415
sg15
I700
sg16
g12
sg17
g12
sg18
V/Library/Fonts/RobotoMono-Bold.ttf
p416
sg20
g21
sbag1
(g8
g3
NtRp417
(dp418
g11
g12
sg13
S'System Font'
p419
sg15
I400
sg16
g12
sg17
g12
sg18
V/System/Library/Fonts/SFNSText-SemiboldItalic.otf
p420
sg20
g21
sbag1
(g8
g3
NtRp421
(dp422
g11
g48
sg13
S'Times New Roman'
p423
sg15
I700
sg16
g12
sg17
g12
sg18
V/Library/Fonts/Times New Roman Bold Italic.ttf
p424
sg20
g21
sbag1
(g8
g3
NtRp425
(dp426
g11
g12
sg13
S'Liberation Mono for Powerline'
p427
sg15
I400
sg16
g12
sg17
g12
sg18
V/Users/adrianwan/Library/Fonts/Literation Mono Powerline.ttf
p428
sg20
g21
sbag1
(g8
g3
NtRp429
(dp430
g11
g48
sg13
S'Arial Narrow'
p431
sg15
I400
sg16
g211
sg17
g12
sg18
V/Library/Fonts/Arial Narrow Italic.ttf
p432
sg20
g21
sbag1
(g8
g3
NtRp433
(dp434
g11
g12
sg13
S'Meslo LG L for Powerline'
p435
sg15
I400
sg16
g12
sg17
g12
sg18
V/Users/adrianwan/Library/Fonts/Meslo LG L Regular for Powerline.otf
p436
sg20
g21
sbag1
(g8
g3
NtRp437
(dp438
g11
g12
sg13
S'Weibei TC'
p439
sg15
I700
sg16
g12
sg17
g12
sg18
V/Library/Fonts/WeibeiTC-Bold.otf
p440
sg20
g21
sbag1
(g8
g3
NtRp441
(dp442
g11
g48
sg13
S'Akkurat Pro'
p443
sg15
I700
sg16
g12
sg17
g12
sg18
V/Users/adrianwan/Library/Fonts/AkkuratPro-BoldItalic.otf
p444
sg20
g21
sbag1
(g8
g3
NtRp445
(dp446
g11
g12
sg13
S'System Font'
p447
sg15
I400
sg16
g12
sg17
g12
sg18
V/System/Library/Fonts/SFNSText-RegularItalicG3.otf
p448
sg20
g21
sbag1
(g8
g3
NtRp449
(dp450
g11
g12
sg13
S'STHeiti'
p451
sg15
I400
sg16
g12
sg17
g12
sg18
V/Library/Fonts/\u534e\u6587\u7ec6\u9ed1.ttf
p452
sg20
g21
sbag1
(g8
g3
NtRp453
(dp454
g11
g48
sg13
S'Anonymous Pro for Powerline'
p455
sg15
I400
sg16
g12
sg17
g12
sg18
V/Users/adrianwan/Library/Fonts/Anonymice Powerline Italic.ttf
p456
sg20
g21
sbag1
(g8
g3
NtRp457
(dp458
g11
g12
sg13
S'PilGi'
p459
sg15
I400
sg16
g12
sg17
g12
sg18
V/Library/Fonts/Pilgiche.ttf
p460
sg20
g21
sbag1
(g8
g3
NtRp461
(dp462
g11
g12
sg13
S'Apple Braille'
p463
sg15
I400
sg16
g12
sg17
g12
sg18
V/System/Library/Fonts/Apple Braille Outline 8 Dot.ttf
p464
sg20
g21
sbag1
(g8
g3
NtRp465
(dp466
g11
g48
sg13
S'Roboto Condensed'
p467
sg15
I400
sg16
g211
sg17
g12
sg18
V/Library/Fonts/RobotoCondensed-Italic.ttf
p468
sg20
g21
sbag1
(g8
g3
NtRp469
(dp470
g11
g12
sg13
S'System Font'
p471
sg15
I400
sg16
g12
sg17
g12
sg18
V/System/Library/Fonts/SFNSText-RegularItalicG2.otf
p472
sg20
g21
sbag1
(g8
g3
NtRp473
(dp474
g11
g12
sg13
S'Plantagenet Cherokee'
p475
sg15
I400
sg16
g12
sg17
g12
sg18
V/Library/Fonts/PlantagenetCherokee.ttf
p476
sg20
g21
sbag1
(g8
g3
NtRp477
(dp478
g11
g12
sg13
S'System Font'
p479
sg15
I400
sg16
g12
sg17
g12
sg18
V/System/Library/Fonts/SFNSText-BoldItalicG3.otf
p480
sg20
g21
sbag1
(g8
g3
NtRp481
(dp482
g11
g12
sg13
S'System Font'
p483
sg15
I400
sg16
g12
sg17
g12
sg18
V/System/Library/Fonts/SFNSText-RegularItalic.otf
p484
sg20
g21
sbag1
(g8
g3
NtRp485
(dp486
g11
g69
sg13
S'DejaVu Sans Mono for Powerline'
p487
sg15
I700
sg16
g12
sg17
g12
sg18
V/Users/adrianwan/Library/Fonts/DejaVu Sans Mono Bold Oblique for Powerline.ttf
p488
sg20
g21
sbag1
(g8
g3
NtRp489
(dp490
g11
g12
sg13
S'Times New Roman'
p491
sg15
I700
sg16
g12
sg17
g12
sg18
V/Library/Fonts/Times New Roman Bold.ttf
p492
sg20
g21
sbag1
(g8
g3
NtRp493
(dp494
g11
g12
sg13
S'Anonymous Pro for Powerline'
p495
sg15
I700
sg16
g12
sg17
g12
sg18
V/Users/adrianwan/Library/Fonts/Anonymice Powerline Bold.ttf
p496
sg20
g21
sbag1
(g8
g3
NtRp497
(dp498
g11
g48
sg13
S'Arial'
p499
sg15
I700
sg16
g12
sg17
g12
sg18
V/Library/Fonts/Arial Bold Italic.ttf
p500
sg20
g21
sbag1
(g8
g3
NtRp501
(dp502
g11
g12
sg13
S'SignPainter'
p503
sg15
I400
sg16
g12
sg17
g12
sg18
V/Library/Fonts/SignPainter.otf
p504
sg20
g21
sbag1
(g8
g3
NtRp505
(dp506
g11
g12
sg13
S'Source Code Pro for Powerline'
p507
sg15
I400
sg16
g12
sg17
g12
sg18
V/Users/adrianwan/Library/Fonts/Sauce Code Powerline Regular.otf
p508
sg20
g21
sbag1
(g8
g3
NtRp509
(dp510
g11
g12
sg13
S'STIXVariants'
p511
sg15
I400
sg16
g12
sg17
g12
sg18
V/Library/Fonts/STIXVar.otf
p512
sg20
g21
sbag1
(g8
g3
NtRp513
(dp514
g11
g12
sg13
S'Mishafi'
p515
sg15
I400
sg16
g12
sg17
g12
sg18
V/Library/Fonts/Mishafi.ttf
p516
sg20
g21
sbag1
(g8
g3
NtRp517
(dp518
g11
g12
sg13
S'STIXVariants'
p519
sg15
I700
sg16
g12
sg17
g12
sg18
V/Library/Fonts/STIXVarBol.otf
p520
sg20
g21
sbag1
(g8
g3
NtRp521
(dp522
g11
g12
sg13
S'System Font'
p523
sg15
I400
sg16
g12
sg17
g12
sg18
V/System/Library/Fonts/SFNSText-BoldItalic.otf
p524
sg20
g21
sbag1
(g8
g3
NtRp525
(dp526
g11
g12
sg13
S'System Font'
p527
sg15
I400
sg16
g12
sg17
g12
sg18
V/System/Library/Fonts/SFNSText-BoldItalicG1.otf
p528
sg20
g21
sbag1
(g8
g3
NtRp529
(dp530
g11
g12
sg13
S'STFangsong'
p531
sg15
I400
sg16
g12
sg17
g12
sg18
V/Library/Fonts/\u534e\u6587\u4eff\u5b8b.ttf
p532
sg20
g21
sbag1
(g8
g3
NtRp533
(dp534
g11
g12
sg13
S'Roboto'
p535
sg15
I900
sg16
g12
sg17
g12
sg18
V/Library/Fonts/Roboto-Black.ttf
p536
sg20
g21
sbag1
(g8
g3
NtRp537
(dp538
g11
g12
sg13
S'monofur for Powerline'
p539
sg15
I400
sg16
g12
sg17
g12
sg18
V/Users/adrianwan/Library/Fonts/Monofur for Powerline.ttf
p540
sg20
g21
sbag1
(g8
g3
NtRp541
(dp542
g11
g12
sg13
S'Hack'
p543
sg15
I400
sg16
g12
sg17
g12
sg18
V/Users/adrianwan/Library/Fonts/Hack-Regular.ttf
p544
sg20
g21
sbag1
(g8
g3
NtRp545
(dp546
g11
g12
sg13
S'STHeiti'
p547
sg15
I400
sg16
g12
sg17
g12
sg18
V/Library/Fonts/\u534e\u6587\u9ed1\u4f53.ttf
p548
sg20
g21
sbag1
(g8
g3
NtRp549
(dp550
g11
g12
sg13
S'System Font'
p551
sg15
I400
sg16
g12
sg17
g12
sg18
V/System/Library/Fonts/SFNSText-Regular.otf
p552
sg20
g21
sbag1
(g8
g3
NtRp553
(dp554
g11
g12
sg13
S'STIXIntegralsUp'
p555
sg15
I700
sg16
g12
sg17
g12
sg18
V/Library/Fonts/STIXIntUpBol.otf
p556
sg20
g21
sbag1
(g8
g3
NtRp557
(dp558
g11
g12
sg13
S'Wawati TC'
p559
sg15
I400
sg16
g12
sg17
g12
sg18
V/Library/Fonts/WawaTC-Regular.otf
p560
sg20
g21
sbag1
(g8
g3
NtRp561
(dp562
g11
g12
sg13
S'Skia'
p563
sg15
I400
sg16
g12
sg17
g12
sg18
V/Library/Fonts/Skia.ttf
p564
sg20
g21
sbag1
(g8
g3
NtRp565
(dp566
g11
g12
sg13
S'STIXSizeFiveSym'
p567
sg15
I400
sg16
g12
sg17
g12
sg18
V/Library/Fonts/STIXSizFiveSymReg.otf
p568
sg20
g21
sbag1
(g8
g3
NtRp569
(dp570
g11
g12
sg13
S'Verdana'
p571
sg15
I400
sg16
g12
sg17
g12
sg18
V/Library/Fonts/Verdana.ttf
p572
sg20
g21
sbag1
(g8
g3
NtRp573
(dp574
g11
g12
sg13
S'Farisi'
p575
sg15
I400
sg16
g12
sg17
g12
sg18
V/Library/Fonts/Farisi.ttf
p576
sg20
g21
sbag1
(g8
g3
NtRp577
(dp578
g11
g12
sg13
S'Roboto Slab'
p579
sg15
I700
sg16
g12
sg17
g12
sg18
V/Library/Fonts/RobotoSlab-Bold.ttf
p580
sg20
g21
sbag1
(g8
g3
NtRp581
(dp582
g11
g69
sg13
S'DejaVu Sans Mono for Powerline'
p583
sg15
I400
sg16
g12
sg17
g12
sg18
V/Users/adrianwan/Library/Fonts/DejaVu Sans Mono Oblique for Powerline.ttf
p584
sg20
g21
sbag1
(g8
g3
NtRp585
(dp586
g11
g12
sg13
S'Gurmukhi MT'
p587
sg15
I400
sg16
g12
sg17
g12
sg18
V/Library/Fonts/Gurmukhi.ttf
p588
sg20
g21
sbag1
(g8
g3
NtRp589
(dp590
g11
g12
sg13
S'Bodoni 72 Smallcaps'
p591
sg15
I400
sg16
g12
sg17
g12
sg18
V/Library/Fonts/Bodoni 72 Smallcaps Book.ttf
p592
sg20
g21
sbag1
(g8
g3
NtRp593
(dp594
g11
g12
sg13
S'YuGothic'
p595
sg15
I700
sg16
g12
sg17
g12
sg18
V/Library/Fonts/Yu Gothic Bold.otf
p596
sg20
g21
sbag1
(g8
g3
NtRp597
(dp598
g11
g12
sg13
S'System Font'
p599
sg15
I400
sg16
g12
sg17
g12
sg18
V/System/Library/Fonts/SFNSText-RegularItalicG1.otf
p600
sg20
g21
sbag1
(g8
g3
NtRp601
(dp602
g11
g12
sg13
S'Apple Color Emoji'
p603
sg15
I400
sg16
g12
sg17
g12
sg18
V/System/Library/Fonts/Apple Color Emoji.ttf
p604
sg20
g21
sbag1
(g8
g3
NtRp605
(dp606
g11
g12
sg13
S'STIXSizeTwoSym'
p607
sg15
I400
sg16
g12
sg17
g12
sg18
V/Library/Fonts/STIXSizTwoSymReg.otf
p608
sg20
g21
sbag1
(g8
g3
NtRp609
(dp610
g11
g12
sg13
S'monofur for Powerline'
p611
sg15
I700
sg16
g12
sg17
g12
sg18
V/Users/adrianwan/Library/Fonts/Monofur Bold for Powerline.ttf
p612
sg20
g21
sbag1
(g8
g3
NtRp613
(dp614
g11
g12
sg13
S'Open Sans'
p615
sg15
I700
sg16
g12
sg17
g12
sg18
V/Library/Fonts/OpenSans-ExtraBold.ttf
p616
sg20
g21
sbag1
(g8
g3
NtRp617
(dp618
g11
g48
sg13
S'Open Sans'
p619
sg15
I200
sg16
g12
sg17
g12
sg18
V/Library/Fonts/OpenSans-LightItalic.ttf
p620
sg20
g21
sbag1
(g8
g3
NtRp621
(dp622
g11
g48
sg13
S'Arial'
p623
sg15
I400
sg16
g12
sg17
g12
sg18
V/Library/Fonts/Arial Italic.ttf
p624
sg20
g21
sbag1
(g8
g3
NtRp625
(dp626
g11
g12
sg13
S'Roboto Mono'
p627
sg15
I400
sg16
g12
sg17
g12
sg18
V/Library/Fonts/RobotoMono-Regular.ttf
p628
sg20
g21
sbag1
(g8
g3
NtRp629
(dp630
g11
g12
sg13
S'System Font'
p631
sg15
I400
sg16
g12
sg17
g12
sg18
V/System/Library/Fonts/SFNSDisplay-Light.otf
p632
sg20
g21
sbag1
(g8
g3
NtRp633
(dp634
g11
g48
sg13
S'STIXNonUnicode'
p635
sg15
I700
sg16
g12
sg17
g12
sg18
V/Library/Fonts/STIXNonUniBolIta.otf
p636
sg20
g21
sbag1
(g8
g3
NtRp637
(dp638
g11
g12
sg13
S'Apple Braille'
p639
sg15
I400
sg16
g12
sg17
g12
sg18
V/System/Library/Fonts/Apple Braille Pinpoint 8 Dot.ttf
p640
sg20
g21
sbag1
(g8
g3
NtRp641
(dp642
g11
g48
sg13
S'Akkurat Pro'
p643
sg15
I200
sg16
g12
sg17
g12
sg18
V/Users/adrianwan/Library/Fonts/AkkuratPro-LightItalic.otf
p644
sg20
g21
sbag1
(g8
g3
NtRp645
(dp646
g11
g48
sg13
S'Georgia'
p647
sg15
I400
sg16
g12
sg17
g12
sg18
V/Library/Fonts/Georgia Italic.ttf
p648
sg20
g21
sbag1
(g8
g3
NtRp649
(dp650
g11
g12
sg13
S'Apple Braille'
p651
sg15
I400
sg16
g12
sg17
g12
sg18
V/System/Library/Fonts/Apple Braille Outline 6 Dot.ttf
p652
sg20
g21
sbag1
(g8
g3
NtRp653
(dp654
g11
g48
sg13
S'Open Sans'
p655
sg15
I700
sg16
g12
sg17
g12
sg18
V/Library/Fonts/OpenSans-BoldItalic.ttf
p656
sg20
g21
sbag1
(g8
g3
NtRp657
(dp658
g11
g48
sg13
S'Courier New'
p659
sg15
I700
sg16
g12
sg17
g12
sg18
V/Library/Fonts/Courier New Bold Italic.ttf
p660
sg20
g21
sbag1
(g8
g3
NtRp661
(dp662
g11
g12
sg13
S'Wawati SC'
p663
sg15
I400
sg16
g12
sg17
g12
sg18
V/Library/Fonts/WawaSC-Regular.otf
p664
sg20
g21
sbag1
(g8
g3
NtRp665
(dp666
g11
g12
sg13
S'System Font'
p667
sg15
I400
sg16
g12
sg17
g12
sg18
V/System/Library/Fonts/SFNSText-RegularG3.otf
p668
sg20
g21
sbag1
(g8
g3
NtRp669
(dp670
g11
g12
sg13
S'Arial Rounded MT Bold'
p671
sg15
I700
sg16
g12
sg17
g12
sg18
V/Library/Fonts/Arial Rounded Bold.ttf
p672
sg20
g21
sbag1
(g8
g3
NtRp673
(dp674
g11
g48
sg13
S'Roboto Mono'
p675
sg15
I400
sg16
g12
sg17
g12
sg18
V/Library/Fonts/RobotoMono-Italic.ttf
p676
sg20
g21
sbag1
(g8
g3
NtRp677
(dp678
g11
g48
sg13
S'Liberation Mono for Powerline'
p679
sg15
I700
sg16
g12
sg17
g12
sg18
V/Users/adrianwan/Library/Fonts/Literation Mono Powerline Bold Italic.ttf
p680
sg20
g21
sbag1
(g8
g3
NtRp681
(dp682
g11
g12
sg13
S'Droid Sans Mono for Powerline'
p683
sg15
I400
sg16
g12
sg17
g12
sg18
V/Users/adrianwan/Library/Fonts/Droid Sans Mono for Powerline.otf
p684
sg20
g21
sbag1
(g8
g3
NtRp685
(dp686
g11
g12
sg13
S'Fira Mono for Powerline'
p687
sg15
I700
sg16
g12
sg17
g12
sg18
V/Users/adrianwan/Library/Fonts/FuraMono-Bold Powerline.otf
p688
sg20
g21
sbag1
(g8
g3
NtRp689
(dp690
g11
g12
sg13
S'Source Code Pro for Powerline'
p691
sg15
I700
sg16
g12
sg17
g12
sg18
V/Users/adrianwan/Library/Fonts/Sauce Code Powerline Bold.otf
p692
sg20
g21
sbag1
(g8
g3
NtRp693
(dp694
g11
g12
sg13
S'Source Code Pro for Powerline'
p695
sg15
I200
sg16
g12
sg17
g12
sg18
V/Users/adrianwan/Library/Fonts/Sauce Code Powerline ExtraLight.otf
p696
sg20
g21
sbag1
(g8
g3
NtRp697
(dp698
g11
g12
sg13
S'Open Sans'
p699
sg15
I700
sg16
g12
sg17
g12
sg18
V/Library/Fonts/OpenSans-Semibold.ttf
p700
sg20
g21
sbag1
(g8
g3
NtRp701
(dp702
g11
g12
sg13
S'System Font'
p703
sg15
I400
sg16
g12
sg17
g12
sg18
V/System/Library/Fonts/SFNSText-Semibold.otf
p704
sg20
g21
sbag1
(g8
g3
NtRp705
(dp706
g11
g12
sg13
S'PCMyungjo'
p707
sg15
I400
sg16
g12
sg17
g12
sg18
V/Library/Fonts/PCmyoungjo.ttf
p708
sg20
g21
sbag1
(g8
g3
NtRp709
(dp710
g11
g12
sg13
S'.LastResort'
p711
sg15
I400
sg16
g12
sg17
g12
sg18
V/System/Library/Fonts/LastResort.ttf
p712
sg20
g21
sbag1
(g8
g3
NtRp713
(dp714
g11
g48
sg13
S'Roboto Mono'
p715
sg15
I400
sg16
g12
sg17
g12
sg18
V/Library/Fonts/RobotoMono-ThinItalic.ttf
p716
sg20
g21
sbag1
(g8
g3
NtRp717
(dp718
g11
g48
sg13
S'Verdana'
p719
sg15
I700
sg16
g12
sg17
g12
sg18
V/Library/Fonts/Verdana Bold Italic.ttf
p720
sg20
g21
sbag1
(g8
g3
NtRp721
(dp722
g11
g12
sg13
S'Meslo LG S DZ for Powerline'
p723
sg15
I400
sg16
g12
sg17
g12
sg18
V/Users/adrianwan/Library/Fonts/Meslo LG S DZ Regular for Powerline.otf
p724
sg20
g21
sbag1
(g8
g3
NtRp725
(dp726
g11
g12
sg13
S'LiHei Pro'
p727
sg15
I400
sg16
g12
sg17
g12
sg18
V/Library/Fonts/\u5137\u9ed1 Pro.ttf
p728
sg20
g21
sbag1
(g8
g3
NtRp729
(dp730
g11
g12
sg13
S'System Font'
p731
sg15
I400
sg16
g12
sg17
g12
sg18
V/System/Library/Fonts/SFNSText-LightItalic.otf
p732
sg20
g21
sbag1
(g8
g3
NtRp733
(dp734
g11
g48
sg13
S'Roboto Mono'
p735
sg15
I700
sg16
g12
sg17
g12
sg18
V/Library/Fonts/RobotoMono-BoldItalic.ttf
p736
sg20
g21
sbag1
(g8
g3
NtRp737
(dp738
g11
g12
sg13
S'InaiMathi'
p739
sg15
I400
sg16
g12
sg17
g12
sg18
V/Library/Fonts/InaiMathi.ttf
p740
sg20
g21
sbag1
(g8
g3
NtRp741
(dp742
g11
g12
sg13
S'System Font'
p743
sg15
I400
sg16
g12
sg17
g12
sg18
V/System/Library/Fonts/SFNSText-BoldG2.otf
p744
sg20
g21
sbag1
(g8
g3
NtRp745
(dp746
g11
g12
sg13
S'STIXIntegralsSm'
p747
sg15
I400
sg16
g12
sg17
g12
sg18
V/Library/Fonts/STIXIntSmReg.otf
p748
sg20
g21
sbag1
(g8
g3
NtRp749
(dp750
g11
g12
sg13
S'Kokonor'
p751
sg15
I400
sg16
g12
sg17
g12
sg18
V/Library/Fonts/Kokonor.ttf
p752
sg20
g21
sbag1
(g8
g3
NtRp753
(dp754
g11
g12
sg13
S'System Font'
p755
sg15
I400
sg16
g12
sg17
g12
sg18
V/System/Library/Fonts/SFNSText-Bold.otf
p756
sg20
g21
sbag1
(g8
g3
NtRp757
(dp758
g11
g48
sg13
S'Verdana'
p759
sg15
I400
sg16
g12
sg17
g12
sg18
V/Library/Fonts/Verdana Italic.ttf
p760
sg20
g21
sbag1
(g8
g3
NtRp761
(dp762
g11
g12
sg13
S'STIXGeneral'
p763
sg15
I700
sg16
g12
sg17
g12
sg18
V/Library/Fonts/STIXGeneralBol.otf
p764
sg20
g21
sbag1
(g8
g3
NtRp765
(dp766
g11
g12
sg13
S'Apple Braille'
p767
sg15
I400
sg16
g12
sg17
g12
sg18
V/System/Library/Fonts/Apple Braille.ttf
p768
sg20
g21
sbag1
(g8
g3
NtRp769
(dp770
g11
g12
sg13
S'Roboto Mono'
p771
sg15
I400
sg16
g12
sg17
g12
sg18
V/Library/Fonts/RobotoMono-Light.ttf
p772
sg20
g21
sbag1
(g8
g3
NtRp773
(dp774
g11
g12
sg13
S'System Font'
p775
sg15
I400
sg16
g12
sg17
g12
sg18
V/System/Library/Fonts/SFNSText-Light.otf
p776
sg20
g21
sbag1
(g8
g3
NtRp777
(dp778
g11
g12
sg13
S'System Font'
p779
sg15
I400
sg16
g12
sg17
g12
sg18
V/System/Library/Fonts/SFNSDisplay-Ultralight.otf
p780
sg20
g21
sbag1
(g8
g3
NtRp781
(dp782
g11
g12
sg13
S'Chalkduster'
p783
sg15
I400
sg16
g12
sg17
g12
sg18
V/Library/Fonts/Chalkduster.ttf
p784
sg20
g21
sbag1
(g8
g3
NtRp785
(dp786
g11
g48
sg13
S'Ubuntu Mono derivative Powerline'
p787
sg15
I400
sg16
g12
sg17
g12
sg18
V/Users/adrianwan/Library/Fonts/Ubuntu Mono derivative Powerline Italic.ttf
p788
sg20
g21
sbag1
(g8
g3
NtRp789
(dp790
g11
g48
sg13
S'Roboto'
p791
sg15
I500
sg16
g12
sg17
g12
sg18
V/Library/Fonts/Roboto-MediumItalic.ttf
p792
sg20
g21
sbag1
(g8
g3
NtRp793
(dp794
g11
g48
sg13
S'Trebuchet MS'
p795
sg15
I400
sg16
g12
sg17
g12
sg18
V/Library/Fonts/Trebuchet MS Italic.ttf
p796
sg20
g21
sbag1
(g8
g3
NtRp797
(dp798
g11
g48
sg13
S'Anonymous Pro'
p799
sg15
I400
sg16
g12
sg17
g12
sg18
V/Users/adrianwan/Library/Fonts/Anonymous Pro I.ttf
p800
sg20
g21
sbag1
(g8
g3
NtRp801
(dp802
g11
g12
sg13
S'STIXNonUnicode'
p803
sg15
I400
sg16
g12
sg17
g12
sg18
V/Library/Fonts/STIXNonUni.otf
p804
sg20
g21
sbag1
(g8
g3
NtRp805
(dp806
g11
g12
sg13
S'Open Sans'
p807
sg15
I200
sg16
g12
sg17
g12
sg18
V/Library/Fonts/OpenSans-Light.ttf
p808
sg20
g21
sbag1
(g8
g3
NtRp809
(dp810
g11
g48
sg13
S'Roboto Mono'
p811
sg15
I400
sg16
g12
sg17
g12
sg18
V/Library/Fonts/RobotoMono-LightItalic.ttf
p812
sg20
g21
sbag1
(g8
g3
NtRp813
(dp814
g11
g12
sg13
S'Roboto Slab'
p815
sg15
I400
sg16
g12
sg17
g12
sg18
V/Library/Fonts/RobotoSlab-Regular.ttf
p816
sg20
g21
sbag1
(g8
g3
NtRp817
(dp818
g11
g12
sg13
S'STIXIntegralsD'
p819
sg15
I400
sg16
g12
sg17
g12
sg18
V/Library/Fonts/STIXIntDReg.otf
p820
sg20
g21
sbag1
(g8
g3
NtRp821
(dp822
g11
g12
sg13
S'Roboto Mono'
p823
sg15
I400
sg16
g12
sg17
g12
sg18
V/Library/Fonts/RobotoMono-Thin.ttf
p824
sg20
g21
sbag1
(g8
g3
NtRp825
(dp826
g11
g48
sg13
S'Anonymous Pro'
p827
sg15
I700
sg16
g12
sg17
g12
sg18
V/Users/adrianwan/Library/Fonts/Anonymous Pro BI.ttf
p828
sg20
g21
sbag1
(g8
g3
NtRp829
(dp830
g11
g48
sg13
S'STIXNonUnicode'
p831
sg15
I400
sg16
g12
sg17
g12
sg18
V/Library/Fonts/STIXNonUniIta.otf
p832
sg20
g21
sbag1
(g8
g3
NtRp833
(dp834
g11
g12
sg13
S'STIXIntegralsUp'
p835
sg15
I400
sg16
g12
sg17
g12
sg18
V/Library/Fonts/STIXIntUpReg.otf
p836
sg20
g21
sbag1
(g8
g3
NtRp837
(dp838
g11
g12
sg13
S'Yuppy SC'
p839
sg15
I400
sg16
g12
sg17
g12
sg18
V/Library/Fonts/YuppySC-Regular.otf
p840
sg20
g21
sbag1
(g8
g3
NtRp841
(dp842
g11
g12
sg13
S'Comic Sans MS'
p843
sg15
I700
sg16
g12
sg17
g12
sg18
V/Library/Fonts/Comic Sans MS Bold.ttf
p844
sg20
g21
sbag1
(g8
g3
NtRp845
(dp846
g11
g12
sg13
S'Trebuchet MS'
p847
sg15
I400
sg16
g12
sg17
g12
sg18
V/Library/Fonts/Trebuchet MS.ttf
p848
sg20
g21
sbag1
(g8
g3
NtRp849
(dp850
g11
g12
sg13
S'Courier New'
p851
sg15
I700
sg16
g12
sg17
g12
sg18
V/Library/Fonts/Courier New Bold.ttf
p852
sg20
g21
sbag1
(g8
g3
NtRp853
(dp854
g11
g12
sg13
S'Big Caslon'
p855
sg15
I500
sg16
g12
sg17
g12
sg18
V/Library/Fonts/BigCaslon.ttf
p856
sg20
g21
sbag1
(g8
g3
NtRp857
(dp858
g11
g12
sg13
S'Roboto'
p859
sg15
I400
sg16
g12
sg17
g12
sg18
V/Library/Fonts/Roboto-Thin.ttf
p860
sg20
g21
sbag1
(g8
g3
NtRp861
(dp862
g11
g12
sg13
S'System Font'
p863
sg15
I400
sg16
g12
sg17
g12
sg18
V/System/Library/Fonts/SFNSText-Heavy.otf
p864
sg20
g21
sbag1
(g8
g3
NtRp865
(dp866
g11
g12
sg13
S'Roboto'
p867
sg15
I700
sg16
g12
sg17
g12
sg18
V/Library/Fonts/Roboto-Bold.ttf
p868
sg20
g21
sbag1
(g8
g3
NtRp869
(dp870
g11
g48
sg13
S'Roboto'
p871
sg15
I700
sg16
g12
sg17
g12
sg18
V/Library/Fonts/Roboto-BoldItalic.ttf
p872
sg20
g21
sbag1
(g8
g3
NtRp873
(dp874
g11
g12
sg13
S'Hack'
p875
sg15
I700
sg16
g12
sg17
g12
sg18
V/Users/adrianwan/Library/Fonts/Hack-Bold.ttf
p876
sg20
g21
sbag1
(g8
g3
NtRp877
(dp878
g11
g12
sg13
S'Herculanum'
p879
sg15
I400
sg16
g12
sg17
g12
sg18
V/Library/Fonts/Herculanum.ttf
p880
sg20
g21
sbag1
(g8
g3
NtRp881
(dp882
g11
g12
sg13
S'Webdings'
p883
sg15
I400
sg16
g12
sg17
g12
sg18
V/Library/Fonts/Webdings.ttf
p884
sg20
g21
sbag1
(g8
g3
NtRp885
(dp886
g11
g12
sg13
S'System Font'
p887
sg15
I400
sg16
g12
sg17
g12
sg18
V/System/Library/Fonts/SFNSDisplay-Black.otf
p888
sg20
g21
sbag1
(g8
g3
NtRp889
(dp890
g11
g12
sg13
S'Apple Braille'
p891
sg15
I400
sg16
g12
sg17
g12
sg18
V/System/Library/Fonts/Apple Braille Pinpoint 6 Dot.ttf
p892
sg20
g21
sbag1
(g8
g3
NtRp893
(dp894
g11
g12
sg13
S'Symbol'
p895
sg15
I400
sg16
g12
sg17
g12
sg18
V/System/Library/Fonts/Symbol.ttf
p896
sg20
g21
sbag1
(g8
g3
NtRp897
(dp898
g11
g12
sg13
S'System Font'
p899
sg15
I400
sg16
g12
sg17
g12
sg18
V/System/Library/Fonts/SFNSText-MediumItalic.otf
p900
sg20
g21
sbag1
(g8
g3
NtRp901
(dp902
g11
g48
sg13
S'Trebuchet MS'
p903
sg15
I700
sg16
g12
sg17
g12
sg18
V/Library/Fonts/Trebuchet MS Bold Italic.ttf
p904
sg20
g21
sbag1
(g8
g3
NtRp905
(dp906
g11
g12
sg13
S'Open Sans'
p907
sg15
I700
sg16
g12
sg17
g12
sg18
V/Library/Fonts/OpenSans-Bold.ttf
p908
sg20
g21
sbag1
(g8
g3
NtRp909
(dp910
g11
g12
sg13
S'Wingdings 2'
p911
sg15
I400
sg16
g12
sg17
g12
sg18
V/Library/Fonts/Wingdings 2.ttf
p912
sg20
g21
sbag1
(g8
g3
NtRp913
(dp914
g11
g12
sg13
S'HeadLineA'
p915
sg15
I400
sg16
g12
sg17
g12
sg18
V/Library/Fonts/HeadlineA.ttf
p916
sg20
g21
sbag1
(g8
g3
NtRp917
(dp918
g11
g12
sg13
S'Tahoma'
p919
sg15
I400
sg16
g12
sg17
g12
sg18
V/Library/Fonts/Tahoma.ttf
p920
sg20
g21
sbag1
(g8
g3
NtRp921
(dp922
g11
g48
sg13
S'Brush Script MT'
p923
sg15
I400
sg16
g12
sg17
g12
sg18
V/Library/Fonts/Brush Script.ttf
p924
sg20
g21
sbag1
(g8
g3
NtRp925
(dp926
g11
g12
sg13
S'.Keyboard'
p927
sg15
I400
sg16
g12
sg17
g12
sg18
V/System/Library/Fonts/Keyboard.ttf
p928
sg20
g21
sbag1
(g8
g3
NtRp929
(dp930
g11
g12
sg13
S'Anonymous Pro'
p931
sg15
I400
sg16
g12
sg17
g12
sg18
V/Users/adrianwan/Library/Fonts/Anonymous Pro.ttf
p932
sg20
g21
sbag1
(g8
g3
NtRp933
(dp934
g11
g48
sg13
S'Akkurat Pro'
p935
sg15
I400
sg16
g12
sg17
g12
sg18
V/Users/adrianwan/Library/Fonts/AkkuratPro-RegularItalic.otf
p936
sg20
g21
sbag1
(g8
g3
NtRp937
(dp938
g11
g12
sg13
S'STIXSizeOneSym'
p939
sg15
I400
sg16
g12
sg17
g12
sg18
V/Library/Fonts/STIXSizOneSymReg.otf
p940
sg20
g21
sbag1
(g8
g3
NtRp941
(dp942
g11
g12
sg13
S'STIXIntegralsUpSm'
p943
sg15
I400
sg16
g12
sg17
g12
sg18
V/Library/Fonts/STIXIntUpSmReg.otf
p944
sg20
g21
sbag1
(g8
g3
NtRp945
(dp946
g11
g12
sg13
S'Andale Mono'
p947
sg15
I400
sg16
g12
sg17
g12
sg18
V/Library/Fonts/Andale Mono.ttf
p948
sg20
g21
sbag1
(g8
g3
NtRp949
(dp950
g11
g12
sg13
S'Ubuntu Mono derivative Powerline'
p951
sg15
I700
sg16
g12
sg17
g12
sg18
V/Users/adrianwan/Library/Fonts/Ubuntu Mono derivative Powerline Bold.ttf
p952
sg20
g21
sbag1
(g8
g3
NtRp953
(dp954
g11
g12
sg13
S'Khmer Sangam MN'
p955
sg15
I400
sg16
g12
sg17
g12
sg18
V/Library/Fonts/Khmer Sangam MN.ttf
p956
sg20
g21
sbag1
(g8
g3
NtRp957
(dp958
g11
g12
sg13
S'Inconsolata-dz for Powerline'
p959
sg15
I400
sg16
g12
sg17
g12
sg18
V/Users/adrianwan/Library/Fonts/Inconsolata-dz for Powerline.otf
p960
sg20
g21
sbag1
(g8
g3
NtRp961
(dp962
g11
g12
sg13
S'Roboto'
p963
sg15
I200
sg16
g12
sg17
g12
sg18
V/Library/Fonts/Roboto-Light.ttf
p964
sg20
g21
sbag1
(g8
g3
NtRp965
(dp966
g11
g12
sg13
S'Microsoft Sans Serif'
p967
sg15
I400
sg16
g12
sg17
g12
sg18
V/Library/Fonts/Microsoft Sans Serif.ttf
p968
sg20
g21
sbag1
(g8
g3
NtRp969
(dp970
g11
g12
sg13
S'Open Sans'
p971
sg15
I400
sg16
g12
sg17
g12
sg18
V/Library/Fonts/OpenSans-Regular.ttf
p972
sg20
g21
sbag1
(g8
g3
NtRp973
(dp974
g11
g12
sg13
S'STIXIntegralsUpD'
p975
sg15
I700
sg16
g12
sg17
g12
sg18
V/Library/Fonts/STIXIntUpDBol.otf
p976
sg20
g21
sbag1
(g8
g3
NtRp977
(dp978
g11
g12
sg13
S'Anonymous Pro for Powerline'
p979
sg15
I400
sg16
g12
sg17
g12
sg18
V/Users/adrianwan/Library/Fonts/Anonymice Powerline.ttf
p980
sg20
g21
sbag1
(g8
g3
NtRp981
(dp982
g11
g12
sg13
S'STIXGeneral'
p983
sg15
I400
sg16
g12
sg17
g12
sg18
V/Library/Fonts/STIXGeneral.otf
p984
sg20
g21
sbag1
(g8
g3
NtRp985
(dp986
g11
g48
sg13
S'Courier New'
p987
sg15
I400
sg16
g12
sg17
g12
sg18
V/Library/Fonts/Courier New Italic.ttf
p988
sg20
g21
sbag1
(g8
g3
NtRp989
(dp990
g11
g12
sg13
S'Arial Black'
p991
sg15
I900
sg16
g12
sg17
g12
sg18
V/Library/Fonts/Arial Black.ttf
p992
sg20
g21
sbag1
(g8
g3
NtRp993
(dp994
g11
g48
sg13
S'STIXGeneral'
p995
sg15
I400
sg16
g12
sg17
g12
sg18
V/Library/Fonts/STIXGeneralItalic.otf
p996
sg20
g21
sbag1
(g8
g3
NtRp997
(dp998
g11
g12
sg13
S'Silom'
p999
sg15
I400
sg16
g12
sg17
g12
sg18
V/Library/Fonts/Silom.ttf
p1000
sg20
g21
sbag1
(g8
g3
NtRp1001
(dp1002
g11
g12
sg13
S'Roboto Mono'
p1003
sg15
I400
sg16
g12
sg17
g12
sg18
V/Library/Fonts/RobotoMono-Medium.ttf
p1004
sg20
g21
sbag1
(g8
g3
NtRp1005
(dp1006
g11
g48
sg13
S'Open Sans'
p1007
sg15
I700
sg16
g12
sg17
g12
sg18
V/Library/Fonts/OpenSans-SemiboldItalic.ttf
p1008
sg20
g21
sbag1
(g8
g3
NtRp1009
(dp1010
g11
g48
sg13
S'Anonymous Pro for Powerline'
p1011
sg15
I700
sg16
g12
sg17
g12
sg18
V/Users/adrianwan/Library/Fonts/Anonymice Powerline Bold Italic.ttf
p1012
sg20
g21
sbag1
(g8
g3
NtRp1013
(dp1014
g11
g12
sg13
S'Yuppy TC'
p1015
sg15
I400
sg16
g12
sg17
g12
sg18
V/Library/Fonts/YuppyTC-Regular.otf
p1016
sg20
g21
sbag1
(g8
g3
NtRp1017
(dp1018
g11
g12
sg13
S'System Font'
p1019
sg15
I400
sg16
g12
sg17
g12
sg18
V/System/Library/Fonts/SFNSText-RegularG1.otf
p1020
sg20
g21
sbag1
(g8
g3
NtRp1021
(dp1022
g11
g12
sg13
S'Roboto Condensed'
p1023
sg15
I700
sg16
g211
sg17
g12
sg18
V/Library/Fonts/RobotoCondensed-Bold.ttf
p1024
sg20
g21
sbag1
(g8
g3
NtRp1025
(dp1026
g11
g12
sg13
S'STIXSizeFourSym'
p1027
sg15
I400
sg16
g12
sg17
g12
sg18
V/Library/Fonts/STIXSizFourSymReg.otf
p1028
sg20
g21
sbag1
(g8
g3
NtRp1029
(dp1030
g11
g48
sg13
S'monofur for Powerline'
p1031
sg15
I400
sg16
g12
sg17
g12
sg18
V/Users/adrianwan/Library/Fonts/Monofur Italic for Powerline.ttf
p1032
sg20
g21
sbag1
(g8
g3
NtRp1033
(dp1034
g11
g12
sg13
S'Meslo LG L DZ for Powerline'
p1035
sg15
I400
sg16
g12
sg17
g12
sg18
V/Users/adrianwan/Library/Fonts/Meslo LG L DZ Regular for Powerline.otf
p1036
sg20
g21
sbag1
(g8
g3
NtRp1037
(dp1038
g11
g12
sg13
S'Apple Chancery'
p1039
sg15
I400
sg16
g12
sg17
g12
sg18
V/Library/Fonts/Apple Chancery.ttf
p1040
sg20
g21
sbag1
(g8
g3
NtRp1041
(dp1042
g11
g12
sg13
S'Roboto Condensed'
p1043
sg15
I200
sg16
g211
sg17
g12
sg18
V/Library/Fonts/RobotoCondensed-Light.ttf
p1044
sg20
g21
sbag1
(g8
g3
NtRp1045
(dp1046
g11
g69
sg13
S'Hack'
p1047
sg15
I400
sg16
g12
sg17
g12
sg18
V/Users/adrianwan/Library/Fonts/Hack-RegularOblique.ttf
p1048
sg20
g21
sbag1
(g8
g3
NtRp1049
(dp1050
g11
g48
sg13
S'Roboto Mono'
p1051
sg15
I400
sg16
g12
sg17
g12
sg18
V/Library/Fonts/RobotoMono-MediumItalic.ttf
p1052
sg20
g21
sbag1
(g8
g3
NtRp1053
(dp1054
g11
g12
sg13
S'Wingdings 3'
p1055
sg15
I400
sg16
g12
sg17
g12
sg18
V/Library/Fonts/Wingdings 3.ttf
p1056
sg20
g21
sbag1
(g8
g3
NtRp1057
(dp1058
g11
g48
sg13
S'STIXGeneral'
p1059
sg15
I700
sg16
g12
sg17
g12
sg18
V/Library/Fonts/STIXGeneralBolIta.otf
p1060
sg20
g21
sbag1
(g8
g3
NtRp1061
(dp1062
g11
g12
sg13
S'Akkurat Pro'
p1063
sg15
I400
sg16
g12
sg17
g12
sg18
V/Users/adrianwan/Library/Fonts/AkkuratPro-Regular.otf
p1064
sg20
g21
sbag1
(g8
g3
NtRp1065
(dp1066
g11
g12
sg13
S'STIXIntegralsUpSm'
p1067
sg15
I700
sg16
g12
sg17
g12
sg18
V/Library/Fonts/STIXIntUpSmBol.otf
p1068
sg20
g21
sbag1
(g8
g3
NtRp1069
(dp1070
g11
g12
sg13
S'Lao Sangam MN'
p1071
sg15
I400
sg16
g12
sg17
g12
sg18
V/Library/Fonts/Lao Sangam MN.ttf
p1072
sg20
g21
sbag1
(g8
g3
NtRp1073
(dp1074
g11
g12
sg13
S'Droid Sans Mono Slashed for Powerline'
p1075
sg15
I400
sg16
g12
sg17
g12
sg18
V/Users/adrianwan/Library/Fonts/Droid Sans Mono Slashed for Powerline.ttf
p1076
sg20
g21
sbag1
(g8
g3
NtRp1077
(dp1078
g11
g12
sg13
S'Trattatello'
p1079
sg15
I400
sg16
g12
sg17
g12
sg18
V/Library/Fonts/Trattatello.ttf
p1080
sg20
g21
sbag1
(g8
g3
NtRp1081
(dp1082
g11
g12
sg13
S'Roboto'
p1083
sg15
I400
sg16
g12
sg17
g12
sg18
V/Library/Fonts/Roboto-Regular.ttf
p1084
sg20
g21
sbag1
(g8
g3
NtRp1085
(dp1086
g11
g12
sg13
S'STIXSizeOneSym'
p1087
sg15
I700
sg16
g12
sg17
g12
sg18
V/Library/Fonts/STIXSizOneSymBol.otf
p1088
sg20
g21
sbag1
(g8
g3
NtRp1089
(dp1090
g11
g48
sg13
S'Liberation Mono for Powerline'
p1091
sg15
I400
sg16
g12
sg17
g12
sg18
V/Users/adrianwan/Library/Fonts/Literation Mono Powerline Italic.ttf
p1092
sg20
g21
sbag1
(g8
g3
NtRp1093
(dp1094
g11
g48
sg13
S'Ubuntu Mono derivative Powerline'
p1095
sg15
I700
sg16
g12
sg17
g12
sg18
V/Users/adrianwan/Library/Fonts/Ubuntu Mono derivative Powerline Bold Italic.ttf
p1096
sg20
g21
sbag1
(g8
g3
NtRp1097
(dp1098
g11
g12
sg13
S'Comic Sans MS'
p1099
sg15
I400
sg16
g12
sg17
g12
sg18
V/Library/Fonts/Comic Sans MS.ttf
p1100
sg20
g21
sbag1
(g8
g3
NtRp1101
(dp1102
g11
g12
sg13
S'Roboto Condensed'
p1103
sg15
I400
sg16
g211
sg17
g12
sg18
V/Library/Fonts/RobotoCondensed-Regular.ttf
p1104
sg20
g21
sbag1
(g8
g3
NtRp1105
(dp1106
g11
g12
sg13
S'Bodoni Ornaments'
p1107
sg15
I400
sg16
g12
sg17
g12
sg18
V/Library/Fonts/Bodoni Ornaments.ttf
p1108
sg20
g21
sbag1
(g8
g3
NtRp1109
(dp1110
g11
g12
sg13
S'Weibei SC'
p1111
sg15
I700
sg16
g12
sg17
g12
sg18
V/Library/Fonts/WeibeiSC-Bold.otf
p1112
sg20
g21
sbag1
(g8
g3
NtRp1113
(dp1114
g11
g12
sg13
S'STIXSizeFourSym'
p1115
sg15
I700
sg16
g12
sg17
g12
sg18
V/Library/Fonts/STIXSizFourSymBol.otf
p1116
sg20
g21
sbag1
(g8
g3
NtRp1117
(dp1118
g11
g12
sg13
S'System Font'
p1119
sg15
I400
sg16
g12
sg17
g12
sg18
V/System/Library/Fonts/SFNSText-BoldG3.otf
p1120
sg20
g21
sbag1
(g8
g3
NtRp1121
(dp1122
g11
g12
sg13
S'Source Code Pro for Powerline'
p1123
sg15
I500
sg16
g12
sg17
g12
sg18
V/Users/adrianwan/Library/Fonts/Sauce Code Powerline Medium.otf
p1124
sg20
g21
sbag1
(g8
g3
NtRp1125
(dp1126
g11
g12
sg13
S'Arial'
p1127
sg15
I700
sg16
g12
sg17
g12
sg18
V/Library/Fonts/Arial Bold.ttf
p1128
sg20
g21
sbag1
(g8
g3
NtRp1129
(dp1130
g11
g12
sg13
S'Georgia'
p1131
sg15
I700
sg16
g12
sg17
g12
sg18
V/Library/Fonts/Georgia Bold.ttf
p1132
sg20
g21
sbag1
(g8
g3
NtRp1133
(dp1134
g11
g12
sg13
S'System Font'
p1135
sg15
I400
sg16
g12
sg17
g12
sg18
V/System/Library/Fonts/SFNSDisplay-Medium.otf
p1136
sg20
g21
sbag1
(g8
g3
NtRp1137
(dp1138
g11
g12
sg13
S'Osaka'
p1139
sg15
I400
sg16
g12
sg17
g12
sg18
V/Library/Fonts/OsakaMono.ttf
p1140
sg20
g21
sbag1
(g8
g3
NtRp1141
(dp1142
g11
g12
sg13
S'GungSeo'
p1143
sg15
I400
sg16
g12
sg17
g12
sg18
V/Library/Fonts/Gungseouche.ttf
p1144
sg20
g21
sbag1
(g8
g3
NtRp1145
(dp1146
g11
g12
sg13
S'Ubuntu Mono derivative Powerline'
p1147
sg15
I400
sg16
g12
sg17
g12
sg18
V/Users/adrianwan/Library/Fonts/Ubuntu Mono derivative Powerline.ttf
p1148
sg20
g21
sbag1
(g8
g3
NtRp1149
(dp1150
g11
g12
sg13
S'Inconsolata-g for Powerline'
p1151
sg15
I400
sg16
g12
sg17
g12
sg18
V/Users/adrianwan/Library/Fonts/Inconsolata-g for Powerline.otf
p1152
sg20
g21
sbag1
(g8
g3
NtRp1153
(dp1154
g11
g12
sg13
S'Meslo LG M for Powerline'
p1155
sg15
I400
sg16
g12
sg17
g12
sg18
V/Users/adrianwan/Library/Fonts/Meslo LG M Regular for Powerline.otf
p1156
sg20
g21
sbag1
(g8
g3
NtRp1157
(dp1158
g11
g12
sg13
S'STIXSizeTwoSym'
p1159
sg15
I700
sg16
g12
sg17
g12
sg18
V/Library/Fonts/STIXSizTwoSymBol.otf
p1160
sg20
g21
sbag1
(g8
g3
NtRp1161
(dp1162
g11
g12
sg13
S'Wingdings'
p1163
sg15
I400
sg16
g12
sg17
g12
sg18
V/Library/Fonts/Wingdings.ttf
p1164
sg20
g21
sbag1
(g8
g3
NtRp1165
(dp1166
g11
g12
sg13
S'Impact'
p1167
sg15
I400
sg16
g12
sg17
g12
sg18
V/Library/Fonts/Impact.ttf
p1168
sg20
g21
sbag1
(g8
g3
NtRp1169
(dp1170
g11
g12
sg13
S'Tahoma'
p1171
sg15
I700
sg16
g12
sg17
g12
sg18
V/Library/Fonts/Tahoma Bold.ttf
p1172
sg20
g21
sbag1
(g8
g3
NtRp1173
(dp1174
g11
g12
sg13
S'STIXNonUnicode'
p1175
sg15
I700
sg16
g12
sg17
g12
sg18
V/Library/Fonts/STIXNonUniBol.otf
p1176
sg20
g21
sbag1
(g8
g3
NtRp1177
(dp1178
g11
g48
sg13
S'Georgia'
p1179
sg15
I700
sg16
g12
sg17
g12
sg18
V/Library/Fonts/Georgia Bold Italic.ttf
p1180
sg20
g21
sbag1
(g8
g3
NtRp1181
(dp1182
g11
g12
sg13
S'System Font'
p1183
sg15
I400
sg16
g12
sg17
g12
sg18
V/System/Library/Fonts/SFNSDisplay-Heavy.otf
p1184
sg20
g21
sbag1
(g8
g3
NtRp1185
(dp1186
g11
g12
sg13
S'STIXIntegralsUpD'
p1187
sg15
I400
sg16
g12
sg17
g12
sg18
V/Library/Fonts/STIXIntUpDReg.otf
p1188
sg20
g21
sbag1
(g8
g3
NtRp1189
(dp1190
g11
g12
sg13
S'Sathu'
p1191
sg15
I400
sg16
g12
sg17
g12
sg18
V/Library/Fonts/Sathu.ttf
p1192
sg20
g21
sbag1
(g8
g3
NtRp1193
(dp1194
g11
g12
sg13
S'System Font'
p1195
sg15
I400
sg16
g12
sg17
g12
sg18
V/System/Library/Fonts/SFNSDisplay-Regular.otf
p1196
sg20
g21
sbag1
(g8
g3
NtRp1197
(dp1198
g11
g48
sg13
S'Open Sans'
p1199
sg15
I700
sg16
g12
sg17
g12
sg18
V/Library/Fonts/OpenSans-ExtraBoldItalic.ttf
p1200
sg20
g21
sbag1
(g8
g3
NtRp1201
(dp1202
g11
g12
sg13
S'Anonymous Pro'
p1203
sg15
I700
sg16
g12
sg17
g12
sg18
V/Users/adrianwan/Library/Fonts/Anonymous Pro B.ttf
p1204
sg20
g21
sbasS'defaultFamily'
p1205
(dp1206
Vafm
p1207
VHelvetica
p1208
sVttf
p1209
VBitstream Vera Sans
p1210
ssS'ttffiles'
p1211
(lp1212
g19
ag25
ag29
ag33
ag37
ag41
ag45
ag50
ag54
ag58
ag62
ag66
ag71
ag75
ag79
ag83
ag87
ag91
ag95
ag99
ag103
ag107
ag111
ag115
ag119
ag123
ag127
ag131
ag135
ag139
ag143
ag147
ag151
ag155
ag159
ag163
ag167
ag171
ag175
ag179
ag183
ag187
ag191
ag195
ag199
ag203
ag207
ag212
ag216
ag220
ag224
ag228
ag232
ag236
ag240
ag244
ag248
ag252
ag256
ag260
aV/Library/Fonts/NISC18030.ttf
p1213
ag264
ag268
ag272
ag276
ag280
ag284
ag288
ag292
ag296
ag300
ag304
ag308
ag312
ag316
ag320
ag324
ag328
ag332
ag336
ag340
ag344
ag348
ag352
ag356
ag360
ag364
ag368
ag372
ag376
ag380
ag384
ag388
ag392
ag396
ag400
ag404
ag408
ag412
ag416
ag420
ag424
ag428
ag432
ag436
ag440
ag444
ag448
ag452
ag456
ag460
ag464
ag468
ag472
ag476
ag480
ag484
ag488
ag492
ag496
ag500
ag504
ag508
ag512
ag516
ag520
ag524
ag528
ag532
ag536
ag540
ag544
ag548
ag552
ag556
ag560
ag564
ag568
ag572
ag576
ag580
ag584
ag588
ag592
ag596
ag600
ag604
ag608
ag612
ag616
ag620
ag624
ag628
ag632
ag636
ag640
ag644
ag648
ag652
ag656
ag660
ag664
ag668
ag672
ag676
ag680
ag684
ag688
ag692
ag696
ag700
ag704
ag708
ag712
ag716
ag720
ag724
ag728
ag732
ag736
ag740
ag744
ag748
ag752
ag756
ag760
ag764
ag768
ag772
ag776
ag780
ag784
ag788
ag792
ag796
ag800
ag804
ag808
ag812
ag816
ag820
ag824
ag828
ag832
ag836
ag840
ag844
ag848
ag852
ag856
ag860
ag864
ag868
ag872
ag876
ag880
ag884
ag888
ag892
ag896
ag900
ag904
ag908
ag912
ag916
ag920
ag924
ag928
ag932
ag936
ag940
ag944
ag948
ag952
ag956
ag960
ag964
ag968
ag972
ag976
ag980
ag984
ag988
ag992
ag996
ag1000
ag1004
ag1008
ag1012
ag1016
ag1020
ag1024
ag1028
ag1032
ag1036
ag1040
ag1044
ag1048
ag1052
ag1056
ag1060
ag1064
ag1068
ag1072
ag1076
ag1080
ag1084
ag1088
ag1092
ag1096
ag1100
ag1104
ag1108
ag1112
ag1116
ag1120
ag1124
ag1128
ag1132
ag1136
ag1140
ag1144
ag1148
ag1152
ag1156
ag1160
ag1164
ag1168
ag1172
ag1176
ag1180
ag1184
ag1188
ag1192
ag1196
ag1200
ag1204
asS'_FontManager__default_weight'
p1214
Vnormal
p1215
sS'_version'
p1216
I101
sS'default_size'
p1217
NsS'defaultFont'
p1218
(dp1219
g1207
V/usr/local/nest-python-2.7.8-Darwin-x86_64-20140826/Python.framework/Versions/2.7/lib/python2.7/site-packages/matplotlib/mpl-data/fonts/pdfcorefonts/Times-Roman.afm
p1220
sg1209
g127
ssS'afmfiles'
p1221
(lp1222
g1220
aV/usr/local/nest-python-2.7.8-Darwin-x86_64-20140826/Python.framework/Versions/2.7/lib/python2.7/site-packages/matplotlib/mpl-data/fonts/afm/cmr10.afm
p1223
aV/usr/local/nest-python-2.7.8-Darwin-x86_64-20140826/Python.framework/Versions/2.7/lib/python2.7/site-packages/matplotlib/mpl-data/fonts/afm/pbkli8a.afm
p1224
aV/usr/local/nest-python-2.7.8-Darwin-x86_64-20140826/Python.framework/Versions/2.7/lib/python2.7/site-packages/matplotlib/mpl-data/fonts/pdfcorefonts/Helvetica-Bold.afm
p1225
aV/usr/local/nest-python-2.7.8-Darwin-x86_64-20140826/Python.framework/Versions/2.7/lib/python2.7/site-packages/matplotlib/mpl-data/fonts/pdfcorefonts/Symbol.afm
p1226
aV/usr/local/nest-python-2.7.8-Darwin-x86_64-20140826/Python.framework/Versions/2.7/lib/python2.7/site-packages/matplotlib/mpl-data/fonts/afm/pzdr.afm
p1227
aV/usr/local/nest-python-2.7.8-Darwin-x86_64-20140826/Python.framework/Versions/2.7/lib/python2.7/site-packages/matplotlib/mpl-data/fonts/afm/psyr.afm
p1228
aV/usr/local/nest-python-2.7.8-Darwin-x86_64-20140826/Python.framework/Versions/2.7/lib/python2.7/site-packages/matplotlib/mpl-data/fonts/afm/pcrb8a.afm
p1229
aV/usr/local/nest-python-2.7.8-Darwin-x86_64-20140826/Python.framework/Versions/2.7/lib/python2.7/site-packages/matplotlib/mpl-data/fonts/afm/pagdo8a.afm
p1230
aV/usr/local/nest-python-2.7.8-Darwin-x86_64-20140826/Python.framework/Versions/2.7/lib/python2.7/site-packages/matplotlib/mpl-data/fonts/pdfcorefonts/Courier-BoldOblique.afm
p1231
aV/usr/local/nest-python-2.7.8-Darwin-x86_64-20140826/Python.framework/Versions/2.7/lib/python2.7/site-packages/matplotlib/mpl-data/fonts/afm/cmex10.afm
p1232
aV/usr/local/nest-python-2.7.8-Darwin-x86_64-20140826/Python.framework/Versions/2.7/lib/python2.7/site-packages/matplotlib/mpl-data/fonts/afm/pbkd8a.afm
p1233
aV/usr/local/nest-python-2.7.8-Darwin-x86_64-20140826/Python.framework/Versions/2.7/lib/python2.7/site-packages/matplotlib/mpl-data/fonts/afm/cmsy10.afm
p1234
aV/usr/local/nest-python-2.7.8-Darwin-x86_64-20140826/Python.framework/Versions/2.7/lib/python2.7/site-packages/matplotlib/mpl-data/fonts/afm/phvro8an.afm
p1235
aV/usr/local/nest-python-2.7.8-Darwin-x86_64-20140826/Python.framework/Versions/2.7/lib/python2.7/site-packages/matplotlib/mpl-data/fonts/afm/phvbo8a.afm
p1236
aV/usr/local/nest-python-2.7.8-Darwin-x86_64-20140826/Python.framework/Versions/2.7/lib/python2.7/site-packages/matplotlib/mpl-data/fonts/pdfcorefonts/Courier.afm
p1237
aV/usr/local/nest-python-2.7.8-Darwin-x86_64-20140826/Python.framework/Versions/2.7/lib/python2.7/site-packages/matplotlib/mpl-data/fonts/afm/pcrr8a.afm
p1238
aV/usr/local/nest-python-2.7.8-Darwin-x86_64-20140826/Python.framework/Versions/2.7/lib/python2.7/site-packages/matplotlib/mpl-data/fonts/afm/ptmbi8a.afm
p1239
aV/usr/local/nest-python-2.7.8-Darwin-x86_64-20140826/Python.framework/Versions/2.7/lib/python2.7/site-packages/matplotlib/mpl-data/fonts/afm/pplr8a.afm
p1240
aV/usr/local/nest-python-2.7.8-Darwin-x86_64-20140826/Python.framework/Versions/2.7/lib/python2.7/site-packages/matplotlib/mpl-data/fonts/pdfcorefonts/Helvetica.afm
p1241
aV/usr/local/nest-python-2.7.8-Darwin-x86_64-20140826/Python.framework/Versions/2.7/lib/python2.7/site-packages/matplotlib/mpl-data/fonts/afm/pplri8a.afm
p1242
aV/usr/local/nest-python-2.7.8-Darwin-x86_64-20140826/Python.framework/Versions/2.7/lib/python2.7/site-packages/matplotlib/mpl-data/fonts/pdfcorefonts/Courier-Bold.afm
p1243
aV/usr/local/nest-python-2.7.8-Darwin-x86_64-20140826/Python.framework/Versions/2.7/lib/python2.7/site-packages/matplotlib/mpl-data/fonts/afm/phvr8an.afm
p1244
aV/usr/local/nest-python-2.7.8-Darwin-x86_64-20140826/Python.framework/Versions/2.7/lib/python2.7/site-packages/matplotlib/mpl-data/fonts/afm/phvro8a.afm
p1245
aV/usr/local/nest-python-2.7.8-Darwin-x86_64-20140826/Python.framework/Versions/2.7/lib/python2.7/site-packages/matplotlib/mpl-data/fonts/afm/pagko8a.afm
p1246
aV/usr/local/nest-python-2.7.8-Darwin-x86_64-20140826/Python.framework/Versions/2.7/lib/python2.7/site-packages/matplotlib/mpl-data/fonts/afm/pncri8a.afm
p1247
aV/usr/local/nest-python-2.7.8-Darwin-x86_64-20140826/Python.framework/Versions/2.7/lib/python2.7/site-packages/matplotlib/mpl-data/fonts/afm/pcrbo8a.afm
p1248
aV/usr/local/nest-python-2.7.8-Darwin-x86_64-20140826/Python.framework/Versions/2.7/lib/python2.7/site-packages/matplotlib/mpl-data/fonts/afm/putr8a.afm
p1249
aV/usr/local/nest-python-2.7.8-Darwin-x86_64-20140826/Python.framework/Versions/2.7/lib/python2.7/site-packages/matplotlib/mpl-data/fonts/afm/phvlo8a.afm
p1250
aV/usr/local/nest-python-2.7.8-Darwin-x86_64-20140826/Python.framework/Versions/2.7/lib/python2.7/site-packages/matplotlib/mpl-data/fonts/afm/putri8a.afm
p1251
aV/usr/local/nest-python-2.7.8-Darwin-x86_64-20140826/Python.framework/Versions/2.7/lib/python2.7/site-packages/matplotlib/mpl-data/fonts/afm/pbkl8a.afm
p1252
aV/usr/local/nest-python-2.7.8-Darwin-x86_64-20140826/Python.framework/Versions/2.7/lib/python2.7/site-packages/matplotlib/mpl-data/fonts/afm/pncbi8a.afm
p1253
aV/usr/local/nest-python-2.7.8-Darwin-x86_64-20140826/Python.framework/Versions/2.7/lib/python2.7/site-packages/matplotlib/mpl-data/fonts/pdfcorefonts/Times-Italic.afm
p1254
aV/usr/local/nest-python-2.7.8-Darwin-x86_64-20140826/Python.framework/Versions/2.7/lib/python2.7/site-packages/matplotlib/mpl-data/fonts/pdfcorefonts/ZapfDingbats.afm
p1255
aV/usr/local/nest-python-2.7.8-Darwin-x86_64-20140826/Python.framework/Versions/2.7/lib/python2.7/site-packages/matplotlib/mpl-data/fonts/afm/ptmr8a.afm
p1256
aV/usr/local/nest-python-2.7.8-Darwin-x86_64-20140826/Python.framework/Versions/2.7/lib/python2.7/site-packages/matplotlib/mpl-data/fonts/pdfcorefonts/Times-BoldItalic.afm
p1257
aV/usr/local/nest-python-2.7.8-Darwin-x86_64-20140826/Python.framework/Versions/2.7/lib/python2.7/site-packages/matplotlib/mpl-data/fonts/afm/putbi8a.afm
p1258
aV/usr/local/nest-python-2.7.8-Darwin-x86_64-20140826/Python.framework/Versions/2.7/lib/python2.7/site-packages/matplotlib/mpl-data/fonts/afm/ptmb8a.afm
p1259
aV/usr/local/nest-python-2.7.8-Darwin-x86_64-20140826/Python.framework/Versions/2.7/lib/python2.7/site-packages/matplotlib/mpl-data/fonts/pdfcorefonts/Helvetica-BoldOblique.afm
p1260
aV/usr/local/nest-python-2.7.8-Darwin-x86_64-20140826/Python.framework/Versions/2.7/lib/python2.7/site-packages/matplotlib/mpl-data/fonts/afm/pplbi8a.afm
p1261
aV/usr/local/nest-python-2.7.8-Darwin-x86_64-20140826/Python.framework/Versions/2.7/lib/python2.7/site-packages/matplotlib/mpl-data/fonts/afm/phvb8an.afm
p1262
aV/usr/local/nest-python-2.7.8-Darwin-x86_64-20140826/Python.framework/Versions/2.7/lib/python2.7/site-packages/matplotlib/mpl-data/fonts/pdfcorefonts/Helvetica-Oblique.afm
p1263
aV/usr/local/nest-python-2.7.8-Darwin-x86_64-20140826/Python.framework/Versions/2.7/lib/python2.7/site-packages/matplotlib/mpl-data/fonts/afm/pbkdi8a.afm
p1264
aV/usr/local/nest-python-2.7.8-Darwin-x86_64-20140826/Python.framework/Versions/2.7/lib/python2.7/site-packages/matplotlib/mpl-data/fonts/afm/phvr8a.afm
p1265
aV/usr/local/nest-python-2.7.8-Darwin-x86_64-20140826/Python.framework/Versions/2.7/lib/python2.7/site-packages/matplotlib/mpl-data/fonts/afm/cmtt10.afm
p1266
aV/usr/local/nest-python-2.7.8-Darwin-x86_64-20140826/Python.framework/Versions/2.7/lib/python2.7/site-packages/matplotlib/mpl-data/fonts/afm/pagd8a.afm
p1267
aV/usr/local/nest-python-2.7.8-Darwin-x86_64-20140826/Python.framework/Versions/2.7/lib/python2.7/site-packages/matplotlib/mpl-data/fonts/afm/pagk8a.afm
p1268
aV/usr/local/nest-python-2.7.8-Darwin-x86_64-20140826/Python.framework/Versions/2.7/lib/python2.7/site-packages/matplotlib/mpl-data/fonts/afm/cmmi10.afm
p1269
aV/usr/local/nest-python-2.7.8-Darwin-x86_64-20140826/Python.framework/Versions/2.7/lib/python2.7/site-packages/matplotlib/mpl-data/fonts/afm/pcrro8a.afm
p1270
aV/usr/local/nest-python-2.7.8-Darwin-x86_64-20140826/Python.framework/Versions/2.7/lib/python2.7/site-packages/matplotlib/mpl-data/fonts/afm/phvbo8an.afm
p1271
aV/usr/local/nest-python-2.7.8-Darwin-x86_64-20140826/Python.framework/Versions/2.7/lib/python2.7/site-packages/matplotlib/mpl-data/fonts/afm/pzcmi8a.afm
p1272
aV/usr/local/nest-python-2.7.8-Darwin-x86_64-20140826/Python.framework/Versions/2.7/lib/python2.7/site-packages/matplotlib/mpl-data/fonts/afm/phvb8a.afm
p1273
aV/usr/local/nest-python-2.7.8-Darwin-x86_64-20140826/Python.framework/Versions/2.7/lib/python2.7/site-packages/matplotlib/mpl-data/fonts/afm/ptmri8a.afm
p1274
aV/usr/local/nest-python-2.7.8-Darwin-x86_64-20140826/Python.framework/Versions/2.7/lib/python2.7/site-packages/matplotlib/mpl-data/fonts/pdfcorefonts/Courier-Oblique.afm
p1275
aV/usr/local/nest-python-2.7.8-Darwin-x86_64-20140826/Python.framework/Versions/2.7/lib/python2.7/site-packages/matplotlib/mpl-data/fonts/afm/pncb8a.afm
p1276
aV/usr/local/nest-python-2.7.8-Darwin-x86_64-20140826/Python.framework/Versions/2.7/lib/python2.7/site-packages/matplotlib/mpl-data/fonts/afm/pplb8a.afm
p1277
aV/usr/local/nest-python-2.7.8-Darwin-x86_64-20140826/Python.framework/Versions/2.7/lib/python2.7/site-packages/matplotlib/mpl-data/fonts/afm/pncr8a.afm
p1278
aV/usr/local/nest-python-2.7.8-Darwin-x86_64-20140826/Python.framework/Versions/2.7/lib/python2.7/site-packages/matplotlib/mpl-data/fonts/afm/putb8a.afm
p1279
aV/usr/local/nest-python-2.7.8-Darwin-x86_64-20140826/Python.framework/Versions/2.7/lib/python2.7/site-packages/matplotlib/mpl-data/fonts/afm/phvl8a.afm
p1280
aV/usr/local/nest-python-2.7.8-Darwin-x86_64-20140826/Python.framework/Versions/2.7/lib/python2.7/site-packages/matplotlib/mpl-data/fonts/pdfcorefonts/Times-Bold.afm
p1281
asS'afmlist'
p1282
(lp1283
g1
(g8
g3
NtRp1284
(dp1285
g11
Vnormal
p1286
sg13
S'Times'
p1287
sg15
I500
sg16
g1286
sg17
g1286
sg18
g1220
sg20
Vscalable
p1288
sbag1
(g8
g3
NtRp1289
(dp1290
g11
g1286
sg13
S'Computer Modern'
p1291
sg15
I500
sg16
g1286
sg17
g1286
sg18
g1223
sg20
g1288
sbag1
(g8
g3
NtRp1292
(dp1293
g11
Vitalic
p1294
sg13
S'ITC Bookman'
p1295
sg15
I200
sg16
g1286
sg17
g1286
sg18
g1224
sg20
g1288
sbag1
(g8
g3
NtRp1296
(dp1297
g11
g1286
sg13
S'Helvetica'
p1298
sg15
I700
sg16
g1286
sg17
g1286
sg18
g1225
sg20
g1288
sbag1
(g8
g3
NtRp1299
(dp1300
g11
g1286
sg13
S'Symbol'
p1301
sg15
I500
sg16
g1286
sg17
g1286
sg18
g1226
sg20
g1288
sbag1
(g8
g3
NtRp1302
(dp1303
g11
g1286
sg13
S'ITC Zapf Dingbats'
p1304
sg15
I500
sg16
g1286
sg17
g1286
sg18
g1227
sg20
g1288
sbag1
(g8
g3
NtRp1305
(dp1306
g11
g1286
sg13
S'Symbol'
p1307
sg15
I500
sg16
g1286
sg17
g1286
sg18
g1228
sg20
g1288
sbag1
(g8
g3
NtRp1308
(dp1309
g11
g1286
sg13
S'Courier'
p1310
sg15
I700
sg16
g1286
sg17
g1286
sg18
g1229
sg20
g1288
sbag1
(g8
g3
NtRp1311
(dp1312
g11
g1294
sg13
S'ITC Avant Garde Gothic'
p1313
sg15
I600
sg16
g1286
sg17
g1286
sg18
g1230
sg20
g1288
sbag1
(g8
g3
NtRp1314
(dp1315
g11
g1294
sg13
S'Courier'
p1316
sg15
I700
sg16
g1286
sg17
g1286
sg18
g1231
sg20
g1288
sbag1
(g8
g3
NtRp1317
(dp1318
g11
g1286
sg13
S'Computer Modern'
p1319
sg15
I500
sg16
g1286
sg17
g1286
sg18
g1232
sg20
g1288
sbag1
(g8
g3
NtRp1320
(dp1321
g11
g1286
sg13
S'ITC Bookman'
p1322
sg15
I600
sg16
g1286
sg17
g1286
sg18
g1233
sg20
g1288
sbag1
(g8
g3
NtRp1323
(dp1324
g11
g1294
sg13
S'Computer Modern'
p1325
sg15
I500
sg16
g1286
sg17
g1286
sg18
g1234
sg20
g1288
sbag1
(g8
g3
NtRp1326
(dp1327
g11
g1294
sg13
S'Helvetica'
p1328
sg15
I500
sg16
Vcondensed
p1329
sg17
g1286
sg18
g1235
sg20
g1288
sbag1
(g8
g3
NtRp1330
(dp1331
g11
g1294
sg13
S'Helvetica'
p1332
sg15
I700
sg16
g1286
sg17
g1286
sg18
g1236
sg20
g1288
sbag1
(g8
g3
NtRp1333
(dp1334
g11
g1286
sg13
S'Courier'
p1335
sg15
I500
sg16
g1286
sg17
g1286
sg18
g1237
sg20
g1288
sbag1
(g8
g3
NtRp1336
(dp1337
g11
g1286
sg13
S'Courier'
p1338
sg15
I500
sg16
g1286
sg17
g1286
sg18
g1238
sg20
g1288
sbag1
(g8
g3
NtRp1339
(dp1340
g11
g1294
sg13
S'Times'
p1341
sg15
I700
sg16
g1286
sg17
g1286
sg18
g1239
sg20
g1288
sbag1
(g8
g3
NtRp1342
(dp1343
g11
g1286
sg13
S'Palatino'
p1344
sg15
I500
sg16
g1286
sg17
g1286
sg18
g1240
sg20
g1288
sbag1
(g8
g3
NtRp1345
(dp1346
g11
g1286
sg13
S'Helvetica'
p1347
sg15
I500
sg16
g1286
sg17
g1286
sg18
g1241
sg20
g1288
sbag1
(g8
g3
NtRp1348
(dp1349
g11
g1294
sg13
S'Palatino'
p1350
sg15
I500
sg16
g1286
sg17
g1286
sg18
g1242
sg20
g1288
sbag1
(g8
g3
NtRp1351
(dp1352
g11
g1286
sg13
S'Courier'
p1353
sg15
I700
sg16
g1286
sg17
g1286
sg18
g1243
sg20
g1288
sbag1
(g8
g3
NtRp1354
(dp1355
g11
g1286
sg13
S'Helvetica'
p1356
sg15
I500
sg16
g1329
sg17
g1286
sg18
g1244
sg20
g1288
sbag1
(g8
g3
NtRp1357
(dp1358
g11
g1294
sg13
S'Helvetica'
p1359
sg15
I500
sg16
g1286
sg17
g1286
sg18
g1245
sg20
g1288
sbag1
(g8
g3
NtRp1360
(dp1361
g11
g1294
sg13
S'ITC Avant Garde Gothic'
p1362
sg15
I400
sg16
g1286
sg17
g1286
sg18
g1246
sg20
g1288
sbag1
(g8
g3
NtRp1363
(dp1364
g11
g1294
sg13
S'New Century Schoolbook'
p1365
sg15
I500
sg16
g1286
sg17
g1286
sg18
g1247
sg20
g1288
sbag1
(g8
g3
NtRp1366
(dp1367
g11
g1294
sg13
S'Courier'
p1368
sg15
I700
sg16
g1286
sg17
g1286
sg18
g1248
sg20
g1288
sbag1
(g8
g3
NtRp1369
(dp1370
g11
g1286
sg13
S'Utopia'
p1371
sg15
I400
sg16
g1286
sg17
g1286
sg18
g1249
sg20
g1288
sbag1
(g8
g3
NtRp1372
(dp1373
g11
g1294
sg13
S'Helvetica'
p1374
sg15
I200
sg16
g1286
sg17
g1286
sg18
g1250
sg20
g1288
sbag1
(g8
g3
NtRp1375
(dp1376
g11
g1294
sg13
S'Utopia'
p1377
sg15
I400
sg16
g1286
sg17
g1286
sg18
g1251
sg20
g1288
sbag1
(g8
g3
NtRp1378
(dp1379
g11
g1286
sg13
S'ITC Bookman'
p1380
sg15
I200
sg16
g1286
sg17
g1286
sg18
g1252
sg20
g1288
sbag1
(g8
g3
NtRp1381
(dp1382
g11
g1294
sg13
S'New Century Schoolbook'
p1383
sg15
I700
sg16
g1286
sg17
g1286
sg18
g1253
sg20
g1288
sbag1
(g8
g3
NtRp1384
(dp1385
g11
g1294
sg13
S'Times'
p1386
sg15
I500
sg16
g1286
sg17
g1286
sg18
g1254
sg20
g1288
sbag1
(g8
g3
NtRp1387
(dp1388
g11
g1286
sg13
S'ZapfDingbats'
p1389
sg15
I500
sg16
g1286
sg17
g1286
sg18
g1255
sg20
g1288
sbag1
(g8
g3
NtRp1390
(dp1391
g11
g1286
sg13
S'Times'
p1392
sg15
I500
sg16
g1286
sg17
g1286
sg18
g1256
sg20
g1288
sbag1
(g8
g3
NtRp1393
(dp1394
g11
g1294
sg13
S'Times'
p1395
sg15
I700
sg16
g1286
sg17
g1286
sg18
g1257
sg20
g1288
sbag1
(g8
g3
NtRp1396
(dp1397
g11
g1294
sg13
S'Utopia'
p1398
sg15
I700
sg16
g1286
sg17
g1286
sg18
g1258
sg20
g1288
sbag1
(g8
g3
NtRp1399
(dp1400
g11
g1286
sg13
S'Times'
p1401
sg15
I700
sg16
g1286
sg17
g1286
sg18
g1259
sg20
g1288
sbag1
(g8
g3
NtRp1402
(dp1403
g11
g1294
sg13
S'Helvetica'
p1404
sg15
I700
sg16
g1286
sg17
g1286
sg18
g1260
sg20
g1288
sbag1
(g8
g3
NtRp1405
(dp1406
g11
g1294
sg13
S'Palatino'
p1407
sg15
I700
sg16
g1286
sg17
g1286
sg18
g1261
sg20
g1288
sbag1
(g8
g3
NtRp1408
(dp1409
g11
g1286
sg13
S'Helvetica'
p1410
sg15
I700
sg16
g1329
sg17
g1286
sg18
g1262
sg20
g1288
sbag1
(g8
g3
NtRp1411
(dp1412
g11
g1294
sg13
S'Helvetica'
p1413
sg15
I500
sg16
g1286
sg17
g1286
sg18
g1263
sg20
g1288
sbag1
(g8
g3
NtRp1414
(dp1415
g11
g1294
sg13
S'ITC Bookman'
p1416
sg15
I600
sg16
g1286
sg17
g1286
sg18
g1264
sg20
g1288
sbag1
(g8
g3
NtRp1417
(dp1418
g11
g1286
sg13
S'Helvetica'
p1419
sg15
I500
sg16
g1286
sg17
g1286
sg18
g1265
sg20
g1288
sbag1
(g8
g3
NtRp1420
(dp1421
g11
g1286
sg13
S'Computer Modern'
p1422
sg15
I500
sg16
g1286
sg17
g1286
sg18
g1266
sg20
g1288
sbag1
(g8
g3
NtRp1423
(dp1424
g11
g1286
sg13
S'ITC Avant Garde Gothic'
p1425
sg15
I600
sg16
g1286
sg17
g1286
sg18
g1267
sg20
g1288
sbag1
(g8
g3
NtRp1426
(dp1427
g11
g1286
sg13
S'ITC Avant Garde Gothic'
p1428
sg15
I400
sg16
g1286
sg17
g1286
sg18
g1268
sg20
g1288
sbag1
(g8
g3
NtRp1429
(dp1430
g11
g1294
sg13
S'Computer Modern'
p1431
sg15
I500
sg16
g1286
sg17
g1286
sg18
g1269
sg20
g1288
sbag1
(g8
g3
NtRp1432
(dp1433
g11
g1294
sg13
S'Courier'
p1434
sg15
I500
sg16
g1286
sg17
g1286
sg18
g1270
sg20
g1288
sbag1
(g8
g3
NtRp1435
(dp1436
g11
g1294
sg13
S'Helvetica'
p1437
sg15
I700
sg16
g1329
sg17
g1286
sg18
g1271
sg20
g1288
sbag1
(g8
g3
NtRp1438
(dp1439
g11
g1294
sg13
S'ITC Zapf Chancery'
p1440
sg15
I500
sg16
g1286
sg17
g1286
sg18
g1272
sg20
g1288
sbag1
(g8
g3
NtRp1441
(dp1442
g11
g1286
sg13
S'Helvetica'
p1443
sg15
I700
sg16
g1286
sg17
g1286
sg18
g1273
sg20
g1288
sbag1
(g8
g3
NtRp1444
(dp1445
g11
g1294
sg13
S'Times'
p1446
sg15
I500
sg16
g1286
sg17
g1286
sg18
g1274
sg20
g1288
sbag1
(g8
g3
NtRp1447
(dp1448
g11
g1294
sg13
S'Courier'
p1449
sg15
I500
sg16
g1286
sg17
g1286
sg18
g1275
sg20
g1288
sbag1
(g8
g3
NtRp1450
(dp1451
g11
g1286
sg13
S'New Century Schoolbook'
p1452
sg15
I700
sg16
g1286
sg17
g1286
sg18
g1276
sg20
g1288
sbag1
(g8
g3
NtRp1453
(dp1454
g11
g1286
sg13
S'Palatino'
p1455
sg15
I700
sg16
g1286
sg17
g1286
sg18
g1277
sg20
g1288
sbag1
(g8
g3
NtRp1456
(dp1457
g11
g1286
sg13
S'New Century Schoolbook'
p1458
sg15
I500
sg16
g1286
sg17
g1286
sg18
g1278
sg20
g1288
sbag1
(g8
g3
NtRp1459
(dp1460
g11
g1286
sg13
S'Utopia'
p1461
sg15
I700
sg16
g1286
sg17
g1286
sg18
g1279
sg20
g1288
sbag1
(g8
g3
NtRp1462
(dp1463
g11
g1286
sg13
S'Helvetica'
p1464
sg15
I200
sg16
g1286
sg17
g1286
sg18
g1280
sg20
g1288
sbag1
(g8
g3
NtRp1465
(dp1466
g11
g1286
sg13
S'Times'
p1467
sg15
I700
sg16
g1286
sg17
g1286
sg18
g1281
sg20
g1288
sbasb.