ccopy_reg
_reconstructor
p1
(cmatplotlib.font_manager
FontManager
p2
c__builtin__
object
p3
NtRp4
(dp5
S'ttflist'
p6
(lp7
g1
(cmatplotlib.font_manager
FontEntry
p8
g3
NtRp9
(dp10
S'style'
p11
Vnormal
p12
sS'name'
p13
S'STIXSizeFourSym'
p14
sS'weight'
p15
I400
sS'stretch'
p16
g12
sS'variant'
p17
g12
sS'fname'
p18
V/usr/local/nest-python-2.7.8-Darwin-x86_64-20140826/Python.framework/Versions/2.7/lib/python2.7/site-packages/matplotlib/mpl-data/fonts/ttf/STIXSizFourSymReg.ttf
p19
sS'size'
p20
Vscalable
p21
sbag1
(g8
g3
NtRp22
(dp23
g11
g12
sg13
S'Bitstream Vera Sans Mono'
p24
sg15
I400
sg16
g12
sg17
g12
sg18
V/usr/local/nest-python-2.7.8-Darwin-x86_64-20140826/Python.framework/Versions/2.7/lib/python2.7/site-packages/matplotlib/mpl-data/fonts/ttf/VeraMono.ttf
p25
sg20
g21
sbag1
(g8
g3
NtRp26
(dp27
g11
g12
sg13
S'cmsy10'
p28
sg15
I400
sg16
g12
sg17
g12
sg18
V/usr/local/nest-python-2.7.8-Darwin-x86_64-20140826/Python.framework/Versions/2.7/lib/python2.7/site-packages/matplotlib/mpl-data/fonts/ttf/cmsy10.ttf
p29
sg20
g21
sbag1
(g8
g3
NtRp30
(dp31
g11
g12
sg13
S'STIXSizeThreeSym'
p32
sg15
I400
sg16
g12
sg17
g12
sg18
V/usr/local/nest-python-2.7.8-Darwin-x86_64-20140826/Python.framework/Versions/2.7/lib/python2.7/site-packages/matplotlib/mpl-data/fonts/ttf/STIXSizThreeSymReg.ttf
p33
sg20
g21
sbag1
(g8
g3
NtRp34
(dp35
g11
g12
sg13
S'STIXSizeFourSym'
p36
sg15
I700
sg16
g12
sg17
g12
sg18
V/usr/local/nest-python-2.7.8-Darwin-x86_64-20140826/Python.framework/Versions/2.7/lib/python2.7/site-packages/matplotlib/mpl-data/fonts/ttf/STIXSizFourSymBol.ttf
p37
sg20
g21
sbag1
(g8
g3
NtRp38
(dp39
g11
g12
sg13
S'STIXNonUnicode'
p40
sg15
I400
sg16
g12
sg17
g12
sg18
V/usr/local/nest-python-2.7.8-Darwin-x86_64-20140826/Python.framework/Versions/2.7/lib/python2.7/site-packages/matplotlib/mpl-data/fonts/ttf/STIXNonUni.ttf
p41
sg20
g21
sbag1
(g8
g3
NtRp42
(dp43
g11
g12
sg13
S'Bitstream Vera Sans'
p44
sg15
I700
sg16
g12
sg17
g12
sg18
V/usr/local/nest-python-2.7.8-Darwin-x86_64-20140826/Python.framework/Versions/2.7/lib/python2.7/site-packages/matplotlib/mpl-data/fonts/ttf/VeraBd.ttf
p45
sg20
g21
sbag1
(g8
g3
NtRp46
(dp47
g11
Vitalic
p48
sg13
S'STIXGeneral'
p49
sg15
I700
sg16
g12
sg17
g12
sg18
V/usr/local/nest-python-2.7.8-Darwin-x86_64-20140826/Python.framework/Versions/2.7/lib/python2.7/site-packages/matplotlib/mpl-data/fonts/ttf/STIXGeneralBolIta.ttf
p50
sg20
g21
sbag1
(g8
g3
NtRp51
(dp52
g11
g12
sg13
S'STIXNonUnicode'
p53
sg15
I700
sg16
g12
sg17
g12
sg18
V/usr/local/nest-python-2.7.8-Darwin-x86_64-20140826/Python.framework/Versions/2.7/lib/python2.7/site-packages/matplotlib/mpl-data/fonts/ttf/STIXNonUniBol.ttf
p54
sg20
g21
sbag1
(g8
g3
NtRp55
(dp56
g11
g48
sg13
S'STIXNonUnicode'
p57
sg15
I400
sg16
g12
sg17
g12
sg18
V/usr/local/nest-python-2.7.8-Darwin-x86_64-20140826/Python.framework/Versions/2.7/lib/python2.7/site-packages/matplotlib/mpl-data/fonts/ttf/STIXNonUniIta.ttf
p58
sg20
g21
sbag1
(g8
g3
NtRp59
(dp60
g11
g12
sg13
S'STIXSizeFiveSym'
p61
sg15
I400
sg16
g12
sg17
g12
sg18
V/usr/local/nest-python-2.7.8-Darwin-x86_64-20140826/Python.framework/Versions/2.7/lib/python2.7/site-packages/matplotlib/mpl-data/fonts/ttf/STIXSizFiveSymReg.ttf
p62
sg20
g21
sbag1
(g8
g3
NtRp63
(dp64
g11
g12
sg13
S'STIXSizeOneSym'
p65
sg15
I400
sg16
g12
sg17
g12
sg18
V/usr/local/nest-python-2.7.8-Darwin-x86_64-20140826/Python.framework/Versions/2.7/lib/python2.7/site-packages/matplotlib/mpl-data/fonts/ttf/STIXSizOneSymReg.ttf
p66
sg20
g21
sbag1
(g8
g3
NtRp67
(dp68
g11
Voblique
p69
sg13
S'Bitstream Vera Sans Mono'
p70
sg15
I700
sg16
g12
sg17
g12
sg18
V/usr/local/nest-python-2.7.8-Darwin-x86_64-20140826/Python.framework/Versions/2.7/lib/python2.7/site-packages/matplotlib/mpl-data/fonts/ttf/VeraMoBI.ttf
p71
sg20
g21
sbag1
(g8
g3
NtRp72
(dp73
g11
g12
sg13
S'STIXGeneral'
p74
sg15
I700
sg16
g12
sg17
g12
sg18
V/usr/local/nest-python-2.7.8-Darwin-x86_64-20140826/Python.framework/Versions/2.7/lib/python2.7/site-packages/matplotlib/mpl-data/fonts/ttf/STIXGeneralBol.ttf
p75
sg20
g21
sbag1
(g8
g3
NtRp76
(dp77
g11
g48
sg13
S'STIXGeneral'
p78
sg15
I400
sg16
g12
sg17
g12
sg18
V/usr/local/nest-python-2.7.8-Darwin-x86_64-20140826/Python.framework/Versions/2.7/lib/python2.7/site-packages/matplotlib/mpl-data/fonts/ttf/STIXGeneralItalic.ttf
p79
sg20
g21
sbag1
(g8
g3
NtRp80
(dp81
g11
g12
sg13
S'STIXSizeTwoSym'
p82
sg15
I400
sg16
g12
sg17
g12
sg18
V/usr/local/nest-python-2.7.8-Darwin-x86_64-20140826/Python.framework/Versions/2.7/lib/python2.7/site-packages/matplotlib/mpl-data/fonts/ttf/STIXSizTwoSymReg.ttf
p83
sg20
g21
sbag1
(g8
g3
NtRp84
(dp85
g11
g12
sg13
S'cmr10'
p86
sg15
I400
sg16
g12
sg17
g12
sg18
V/usr/local/nest-python-2.7.8-Darwin-x86_64-20140826/Python.framework/Versions/2.7/lib/python2.7/site-packages/matplotlib/mpl-data/fonts/ttf/cmr10.ttf
p87
sg20
g21
sbag1
(g8
g3
NtRp88
(dp89
g11
g12
sg13
S'Bitstream Vera Serif'
p90
sg15
I700
sg16
g12
sg17
g12
sg18
V/usr/local/nest-python-2.7.8-Darwin-x86_64-20140826/Python.framework/Versions/2.7/lib/python2.7/site-packages/matplotlib/mpl-data/fonts/ttf/VeraSeBd.ttf
p91
sg20
g21
sbag1
(g8
g3
NtRp92
(dp93
g11
g12
sg13
S'STIXGeneral'
p94
sg15
I400
sg16
g12
sg17
g12
sg18
V/usr/local/nest-python-2.7.8-Darwin-x86_64-20140826/Python.framework/Versions/2.7/lib/python2.7/site-packages/matplotlib/mpl-data/fonts/ttf/STIXGeneral.ttf
p95
sg20
g21
sbag1
(g8
g3
NtRp96
(dp97
g11
g69
sg13
S'Bitstream Vera Sans'
p98
sg15
I700
sg16
g12
sg17
g12
sg18
V/usr/local/nest-python-2.7.8-Darwin-x86_64-20140826/Python.framework/Versions/2.7/lib/python2.7/site-packages/matplotlib/mpl-data/fonts/ttf/VeraBI.ttf
p99
sg20
g21
sbag1
(g8
g3
NtRp100
(dp101
g11
g12
sg13
S'Bitstream Vera Serif'
p102
sg15
I400
sg16
g12
sg17
g12
sg18
V/usr/local/nest-python-2.7.8-Darwin-x86_64-20140826/Python.framework/Versions/2.7/lib/python2.7/site-packages/matplotlib/mpl-data/fonts/ttf/VeraSe.ttf
p103
sg20
g21
sbag1
(g8
g3
NtRp104
(dp105
g11
g69
sg13
S'Bitstream Vera Sans'
p106
sg15
I400
sg16
g12
sg17
g12
sg18
V/usr/local/nest-python-2.7.8-Darwin-x86_64-20140826/Python.framework/Versions/2.7/lib/python2.7/site-packages/matplotlib/mpl-data/fonts/ttf/VeraIt.ttf
p107
sg20
g21
sbag1
(g8
g3
NtRp108
(dp109
g11
g12
sg13
S'cmex10'
p110
sg15
I400
sg16
g12
sg17
g12
sg18
V/usr/local/nest-python-2.7.8-Darwin-x86_64-20140826/Python.framework/Versions/2.7/lib/python2.7/site-packages/matplotlib/mpl-data/fonts/ttf/cmex10.ttf
p111
sg20
g21
sbag1
(g8
g3
NtRp112
(dp113
g11
g12
sg13
S'STIXSizeTwoSym'
p114
sg15
I700
sg16
g12
sg17
g12
sg18
V/usr/local/nest-python-2.7.8-Darwin-x86_64-20140826/Python.framework/Versions/2.7/lib/python2.7/site-packages/matplotlib/mpl-data/fonts/ttf/STIXSizTwoSymBol.ttf
p115
sg20
g21
sbag1
(g8
g3
NtRp116
(dp117
g11
g12
sg13
S'STIXSizeThreeSym'
p118
sg15
I700
sg16
g12
sg17
g12
sg18
V/usr/local/nest-python-2.7.8-Darwin-x86_64-20140826/Python.framework/Versions/2.7/lib/python2.7/site-packages/matplotlib/mpl-data/fonts/ttf/STIXSizThreeSymBol.ttf
p119
sg20
g21
sbag1
(g8
g3
NtRp120
(dp121
g11
g12
sg13
S'cmtt10'
p122
sg15
I400
sg16
g12
sg17
g12
sg18
V/usr/local/nest-python-2.7.8-Darwin-x86_64-20140826/Python.framework/Versions/2.7/lib/python2.7/site-packages/matplotlib/mpl-data/fonts/ttf/cmtt10.ttf
p123
sg20
g21
sbag1
(g8
g3
NtRp124
(dp125
g11
g12
sg13
S'Bitstream Vera Sans'
p126
sg15
I400
sg16
g12
sg17
g12
sg18
V/usr/local/nest-python-2.7.8-Darwin-x86_64-20140826/Python.framework/Versions/2.7/lib/python2.7/site-packages/matplotlib/mpl-data/fonts/ttf/Vera.ttf
p127
sg20
g21
sbag1
(g8
g3
NtRp128
(dp129
g11
g12
sg13
S'cmb10'
p130
sg15
I400
sg16
g12
sg17
g12
sg18
V/usr/local/nest-python-2.7.8-Darwin-x86_64-20140826/Python.framework/Versions/2.7/lib/python2.7/site-packages/matplotlib/mpl-data/fonts/ttf/cmb10.ttf
p131
sg20
g21
sbag1
(g8
g3
NtRp132
(dp133
g11
g12
sg13
S'cmss10'
p134
sg15
I400
sg16
g12
sg17
g12
sg18
V/usr/local/nest-python-2.7.8-Darwin-x86_64-20140826/Python.framework/Versions/2.7/lib/python2.7/site-packages/matplotlib/mpl-data/fonts/ttf/cmss10.ttf
p135
sg20
g21
sbag1
(g8
g3
NtRp136
(dp137
g11
g69
sg13
S'Bitstream Vera Sans Mono'
p138
sg15
I400
sg16
g12
sg17
g12
sg18
V/usr/local/nest-python-2.7.8-Darwin-x86_64-20140826/Python.framework/Versions/2.7/lib/python2.7/site-packages/matplotlib/mpl-data/fonts/ttf/VeraMoIt.ttf
p139
sg20
g21
sbag1
(g8
g3
NtRp140
(dp141
g11
g12
sg13
S'Bitstream Vera Sans Mono'
p142
sg15
I700
sg16
g12
sg17
g12
sg18
V/usr/local/nest-python-2.7.8-Darwin-x86_64-20140826/Python.framework/Versions/2.7/lib/python2.7/site-packages/matplotlib/mpl-data/fonts/ttf/VeraMoBd.ttf
p143
sg20
g21
sbag1
(g8
g3
NtRp144
(dp145
g11
g12
sg13
S'STIXSizeOneSym'
p146
sg15
I700
sg16
g12
sg17
g12
sg18
V/usr/local/nest-python-2.7.8-Darwin-x86_64-20140826/Python.framework/Versions/2.7/lib/python2.7/site-packages/matplotlib/mpl-data/fonts/ttf/STIXSizOneSymBol.ttf
p147
sg20
g21
sbag1
(g8
g3
NtRp148
(dp149
g11
g12
sg13
S'cmmi10'
p150
sg15
I400
sg16
g12
sg17
g12
sg18
V/usr/local/nest-python-2.7.8-Darwin-x86_64-20140826/Python.framework/Versions/2.7/lib/python2.7/site-packages/matplotlib/mpl-data/fonts/ttf/cmmi10.ttf
p151
sg20
g21
sbag1
(g8
g3
NtRp152
(dp153
g11
g48
sg13
S'STIXNonUnicode'
p154
sg15
I700
sg16
g12
sg17
g12
sg18
V/usr/local/nest-python-2.7.8-Darwin-x86_64-20140826/Python.framework/Versions/2.7/lib/python2.7/site-packages/matplotlib/mpl-data/fonts/ttf/STIXNonUniBolIta.ttf
p155
sg20
g21
sbag1
(g8
g3
NtRp156
(dp157
g11
g12
sg13
S'Akkurat Pro'
p158
sg15
I700
sg16
g12
sg17
g12
sg18
V/Users/adrianwan/Library/Fonts/AkkuratPro-Bold.otf
p159
sg20
g21
sbag1
(g8
g3
NtRp160
(dp161
g11
g48
sg13
S'Open Sans'
p162
sg15
I400
sg16
g12
sg17
g12
sg18
V/Library/Fonts/OpenSans-Italic.ttf
p163
sg20
g21
sbag1
(g8
g3
NtRp164
(dp165
g11
g12
sg13
S'Hiragino Kaku Gothic ProN'
p166
sg15
I400
sg16
g12
sg17
g12
sg18
V/System/Library/Fonts/\u30d2\u30e9\u30ad\u3099\u30ce\u89d2\u30b3\u3099 ProN W3.otf
p167
sg20
g21
sbag1
(g8
g3
NtRp168
(dp169
g11
g12
sg13
S'Hoefler Text'
p170
sg15
I400
sg16
g12
sg17
g12
sg18
V/Library/Fonts/Hoefler Text Ornaments.ttf
p171
sg20
g21
sbag1
(g8
g3
NtRp172
(dp173
g11
g48
sg13
S'Roboto'
p174
sg15
I400
sg16
g12
sg17
g12
sg18
V/Library/Fonts/Roboto-Italic.ttf
p175
sg20
g21
sbag1
(g8
g3
NtRp176
(dp177
g11
g12
sg13
S'Mshtakan'
p178
sg15
I400
sg16
g12
sg17
g12
sg18
V/Library/Fonts/MshtakanRegular.ttf
p179
sg20
g21
sbag1
(g8
g3
NtRp180
(dp181
g11
g12
sg13
S'Roboto'
p182
sg15
I400
sg16
g12
sg17
g12
sg18
V/Library/Fonts/Roboto-Medium.ttf
p183
sg20
g21
sbag1
(g8
g3
NtRp184
(dp185
g11
g12
sg13
S'Osaka'
p186
sg15
I400
sg16
g12
sg17
g12
sg18
V/Library/Fonts/Osaka.ttf
p187
sg20
g21
sbag1
(g8
g3
NtRp188
(dp189
g11
g12
sg13
S'Hiragino Mincho Pro'
p190
sg15
I400
sg16
g12
sg17
g12
sg18
V/Library/Fonts/\u30d2\u30e9\u30ad\u3099\u30ce\u660e\u671d Pro W3.otf
p191
sg20
g21
sbag1
(g8
g3
NtRp192
(dp193
g11
g12
sg13
S'Verdana'
p194
sg15
I700
sg16
g12
sg17
g12
sg18
V/Library/Fonts/Verdana Bold.ttf
p195
sg20
g21
sbag1
(g8
g3
NtRp196
(dp197
g11
g12
sg13
S'Apple SD Gothic Neo'
p198
sg15
I200
sg16
g12
sg17
g12
sg18
V/Library/Fonts/AppleSDGothicNeo-UltraLight.otf
p199
sg20
g21
sbag1
(g8
g3
NtRp200
(dp201
g11
g12
sg13
S'Arial Unicode MS'
p202
sg15
I400
sg16
g12
sg17
g12
sg18
V/Library/Fonts/Arial Unicode.ttf
p203
sg20
g21
sbag1
(g8
g3
NtRp204
(dp205
g11
g12
sg13
S'.Hiragino Kaku Gothic Interface'
p206
sg15
I400
sg16
g12
sg17
g12
sg18
V/System/Library/Fonts/HiraKakuInterface-W1.otf
p207
sg20
g21
sbag1
(g8
g3
NtRp208
(dp209
g11
g12
sg13
S'STIXSizeThreeSym'
p210
sg15
I400
sg16
g12
sg17
g12
sg18
V/Library/Fonts/STIXSizThreeSymReg.otf
p211
sg20
g21
sbag1
(g8
g3
NtRp212
(dp213
g11
g12
sg13
S'DIN Condensed'
p214
sg15
I700
sg16
Vcondensed
p215
sg17
g12
sg18
V/Library/Fonts/DIN Condensed Bold.ttf
p216
sg20
g21
sbag1
(g8
g3
NtRp217
(dp218
g11
g48
sg13
S'Roboto'
p219
sg15
I700
sg16
g12
sg17
g12
sg18
V/Library/Fonts/Roboto-BoldItalic.ttf
p220
sg20
g21
sbag1
(g8
g3
NtRp221
(dp222
g11
g12
sg13
S'Hiragino Mincho ProN'
p223
sg15
I400
sg16
g12
sg17
g12
sg18
V/System/Library/Fonts/\u30d2\u30e9\u30ad\u3099\u30ce\u660e\u671d ProN W3.otf
p224
sg20
g21
sbag1
(g8
g3
NtRp225
(dp226
g11
g12
sg13
S'Times New Roman'
p227
sg15
I500
sg16
g12
sg17
g12
sg18
V/Library/Fonts/Times New Roman.ttf
p228
sg20
g21
sbag1
(g8
g3
NtRp229
(dp230
g11
g12
sg13
S'LiSong Pro'
p231
sg15
I400
sg16
g12
sg17
g12
sg18
V/Library/Fonts/\u5137\u5b8b Pro.ttf
p232
sg20
g21
sbag1
(g8
g3
NtRp233
(dp234
g11
g12
sg13
S'Apple SD Gothic Neo'
p235
sg15
I800
sg16
g12
sg17
g12
sg18
V/Library/Fonts/AppleSDGothicNeo-Heavy.otf
p236
sg20
g21
sbag1
(g8
g3
NtRp237
(dp238
g11
g12
sg13
S'Arial'
p239
sg15
I400
sg16
g12
sg17
g12
sg18
V/Library/Fonts/Arial.ttf
p240
sg20
g21
sbag1
(g8
g3
NtRp241
(dp242
g11
g12
sg13
S'AppleGothic'
p243
sg15
I400
sg16
g12
sg17
g12
sg18
V/Library/Fonts/AppleGothic.ttf
p244
sg20
g21
sbag1
(g8
g3
NtRp245
(dp246
g11
g12
sg13
S'YuGothic'
p247
sg15
I400
sg16
g12
sg17
g12
sg18
V/Library/Fonts/Yu Gothic Medium.otf
p248
sg20
g21
sbag1
(g8
g3
NtRp249
(dp250
g11
g12
sg13
S'Gujarati MT'
p251
sg15
I700
sg16
g12
sg17
g12
sg18
V/Library/Fonts/GujaratiMTBold.ttf
p252
sg20
g21
sbag1
(g8
g3
NtRp253
(dp254
g11
g12
sg13
S'Arial Narrow'
p255
sg15
I400
sg16
g215
sg17
g12
sg18
V/Library/Fonts/Arial Narrow.ttf
p256
sg20
g21
sbag1
(g8
g3
NtRp257
(dp258
g11
g12
sg13
S'Apple SD Gothic Neo'
p259
sg15
I700
sg16
g12
sg17
g12
sg18
V/System/Library/Fonts/AppleSDGothicNeo-Bold.otf
p260
sg20
g21
sbag1
(g8
g3
NtRp261
(dp262
g11
g12
sg13
S'Hiragino Maru Gothic ProN'
p263
sg15
I400
sg16
g12
sg17
g12
sg18
V/Library/Fonts/\u30d2\u30e9\u30ad\u3099\u30ce\u4e38\u30b3\u3099 ProN W4.otf
p264
sg20
g21
sbag1
(g8
g3
NtRp265
(dp266
g11
g69
sg13
S'Mshtakan'
p267
sg15
I400
sg16
g12
sg17
g12
sg18
V/Library/Fonts/MshtakanOblique.ttf
p268
sg20
g21
sbag1
(g8
g3
NtRp269
(dp270
g11
g12
sg13
S'Chalkduster'
p271
sg15
I400
sg16
g12
sg17
g12
sg18
V/Library/Fonts/Chalkduster.ttf
p272
sg20
g21
sbag1
(g8
g3
NtRp273
(dp274
g11
g48
sg13
S'Roboto'
p275
sg15
I400
sg16
g12
sg17
g12
sg18
V/Library/Fonts/Roboto-LightItalic.ttf
p276
sg20
g21
sbag1
(g8
g3
NtRp277
(dp278
g11
g12
sg13
S'Hiragino Mincho Pro'
p279
sg15
I700
sg16
g12
sg17
g12
sg18
V/Library/Fonts/\u30d2\u30e9\u30ad\u3099\u30ce\u660e\u671d Pro W6.otf
p280
sg20
g21
sbag1
(g8
g3
NtRp281
(dp282
g11
g12
sg13
S'AppleMyungjo'
p283
sg15
I400
sg16
g12
sg17
g12
sg18
V/Library/Fonts/AppleMyungjo.ttf
p284
sg20
g21
sbag1
(g8
g3
NtRp285
(dp286
g11
g12
sg13
S'Mishafi Gold'
p287
sg15
I400
sg16
g12
sg17
g12
sg18
V/Library/Fonts/Mishafi Gold.ttf
p288
sg20
g21
sbag1
(g8
g3
NtRp289
(dp290
g11
g48
sg13
S'Roboto Condensed'
p291
sg15
I400
sg16
g12
sg17
g12
sg18
V/Library/Fonts/RobotoCondensed-LightItalic.ttf
p292
sg20
g21
sbag1
(g8
g3
NtRp293
(dp294
g11
g12
sg13
S'Akkurat Pro'
p295
sg15
I200
sg16
g12
sg17
g12
sg18
V/Users/adrianwan/Library/Fonts/AkkuratPro-Light.otf
p296
sg20
g21
sbag1
(g8
g3
NtRp297
(dp298
g11
g12
sg13
S'Zapf Dingbats'
p299
sg15
I400
sg16
g12
sg17
g12
sg18
V/System/Library/Fonts/ZapfDingbats.ttf
p300
sg20
g21
sbag1
(g8
g3
NtRp301
(dp302
g11
g48
sg13
S'Roboto'
p303
sg15
I400
sg16
g12
sg17
g12
sg18
V/Library/Fonts/Roboto-ThinItalic.ttf
p304
sg20
g21
sbag1
(g8
g3
NtRp305
(dp306
g11
g12
sg13
S'STIXIntegralsD'
p307
sg15
I700
sg16
g12
sg17
g12
sg18
V/Library/Fonts/STIXIntDBol.otf
p308
sg20
g21
sbag1
(g8
g3
NtRp309
(dp310
g11
g12
sg13
S'DIN Alternate'
p311
sg15
I700
sg16
g12
sg17
g12
sg18
V/Library/Fonts/DIN Alternate Bold.ttf
p312
sg20
g21
sbag1
(g8
g3
NtRp313
(dp314
g11
g12
sg13
S'Myanmar Sangam MN'
p315
sg15
I400
sg16
g12
sg17
g12
sg18
V/Library/Fonts/Myanmar Sangam MN.ttf
p316
sg20
g21
sbag1
(g8
g3
NtRp317
(dp318
g11
g12
sg13
S'STIXSizeThreeSym'
p319
sg15
I700
sg16
g12
sg17
g12
sg18
V/Library/Fonts/STIXSizThreeSymBol.otf
p320
sg20
g21
sbag1
(g8
g3
NtRp321
(dp322
g11
g12
sg13
S'Roboto Slab'
p323
sg15
I400
sg16
g12
sg17
g12
sg18
V/Library/Fonts/RobotoSlab-Thin.ttf
p324
sg20
g21
sbag1
(g8
g3
NtRp325
(dp326
g11
g12
sg13
S'Courier New'
p327
sg15
I400
sg16
g12
sg17
g12
sg18
V/Library/Fonts/Courier New.ttf
p328
sg20
g21
sbag1
(g8
g3
NtRp329
(dp330
g11
g48
sg13
S'Arial Narrow'
p331
sg15
I700
sg16
g215
sg17
g12
sg18
V/Library/Fonts/Arial Narrow Bold Italic.ttf
p332
sg20
g21
sbag1
(g8
g3
NtRp333
(dp334
g11
g12
sg13
S'Luminari'
p335
sg15
I400
sg16
g12
sg17
g12
sg18
V/Library/Fonts/Luminari.ttf
p336
sg20
g21
sbag1
(g8
g3
NtRp337
(dp338
g11
g12
sg13
S'Zapfino'
p339
sg15
I400
sg16
g12
sg17
g12
sg18
V/Library/Fonts/Zapfino.ttf
p340
sg20
g21
sbag1
(g8
g3
NtRp341
(dp342
g11
g12
sg13
S'Arial Narrow'
p343
sg15
I700
sg16
g215
sg17
g12
sg18
V/Library/Fonts/Arial Narrow Bold.ttf
p344
sg20
g21
sbag1
(g8
g3
NtRp345
(dp346
g11
g48
sg13
S'Times New Roman'
p347
sg15
I500
sg16
g12
sg17
g12
sg18
V/Library/Fonts/Times New Roman Italic.ttf
p348
sg20
g21
sbag1
(g8
g3
NtRp349
(dp350
g11
g12
sg13
S'Krungthep'
p351
sg15
I400
sg16
g12
sg17
g12
sg18
V/Library/Fonts/Krungthep.ttf
p352
sg20
g21
sbag1
(g8
g3
NtRp353
(dp354
g11
g48
sg13
S'Roboto Condensed'
p355
sg15
I700
sg16
g12
sg17
g12
sg18
V/Library/Fonts/RobotoCondensed-BoldItalic.ttf
p356
sg20
g21
sbag1
(g8
g3
NtRp357
(dp358
g11
g12
sg13
S'Apple SD Gothic Neo'
p359
sg15
I700
sg16
g12
sg17
g12
sg18
V/Library/Fonts/AppleSDGothicNeo-ExtraBold.otf
p360
sg20
g21
sbag1
(g8
g3
NtRp361
(dp362
g11
g12
sg13
S'Georgia'
p363
sg15
I400
sg16
g12
sg17
g12
sg18
V/Library/Fonts/Georgia.ttf
p364
sg20
g21
sbag1
(g8
g3
NtRp365
(dp366
g11
g12
sg13
S'STIXIntegralsSm'
p367
sg15
I700
sg16
g12
sg17
g12
sg18
V/Library/Fonts/STIXIntSmBol.otf
p368
sg20
g21
sbag1
(g8
g3
NtRp369
(dp370
g11
g12
sg13
S'Diwan Thuluth'
p371
sg15
I400
sg16
g12
sg17
g12
sg18
V/Library/Fonts/Diwan Thuluth.ttf
p372
sg20
g21
sbag1
(g8
g3
NtRp373
(dp374
g11
g12
sg13
S'Trebuchet MS'
p375
sg15
I700
sg16
g12
sg17
g12
sg18
V/Library/Fonts/Trebuchet MS Bold.ttf
p376
sg20
g21
sbag1
(g8
g3
NtRp377
(dp378
g11
g48
sg13
S'Roboto'
p379
sg15
I700
sg16
g12
sg17
g12
sg18
V/Library/Fonts/Roboto-BlackItalic.ttf
p380
sg20
g21
sbag1
(g8
g3
NtRp381
(dp382
g11
g12
sg13
S'YuMincho'
p383
sg15
I400
sg16
g12
sg17
g12
sg18
V/Library/Fonts/Yu Mincho Medium.otf
p384
sg20
g21
sbag1
(g8
g3
NtRp385
(dp386
g11
g12
sg13
S'Roboto Slab'
p387
sg15
I200
sg16
g12
sg17
g12
sg18
V/Library/Fonts/RobotoSlab-Light.ttf
p388
sg20
g21
sbag1
(g8
g3
NtRp389
(dp390
g11
g12
sg13
S'Bradley Hand'
p391
sg15
I700
sg16
g12
sg17
g12
sg18
V/Library/Fonts/Bradley Hand Bold.ttf
p392
sg20
g21
sbag1
(g8
g3
NtRp393
(dp394
g11
g12
sg13
S'Roboto Mono'
p395
sg15
I700
sg16
g12
sg17
g12
sg18
V/Library/Fonts/RobotoMono-Bold.ttf
p396
sg20
g21
sbag1
(g8
g3
NtRp397
(dp398
g11
g48
sg13
S'Times New Roman'
p399
sg15
I700
sg16
g12
sg17
g12
sg18
V/Library/Fonts/Times New Roman Bold Italic.ttf
p400
sg20
g21
sbag1
(g8
g3
NtRp401
(dp402
g11
g48
sg13
S'Roboto Mono'
p403
sg15
I400
sg16
g12
sg17
g12
sg18
V/Library/Fonts/RobotoMono-ThinItalic.ttf
p404
sg20
g21
sbag1
(g8
g3
NtRp405
(dp406
g11
g48
sg13
S'Arial Narrow'
p407
sg15
I400
sg16
g215
sg17
g12
sg18
V/Library/Fonts/Arial Narrow Italic.ttf
p408
sg20
g21
sbag1
(g8
g3
NtRp409
(dp410
g11
g12
sg13
S'Hiragino Kaku Gothic Pro'
p411
sg15
I700
sg16
g12
sg17
g12
sg18
V/Library/Fonts/\u30d2\u30e9\u30ad\u3099\u30ce\u89d2\u30b3\u3099 Pro W6.otf
p412
sg20
g21
sbag1
(g8
g3
NtRp413
(dp414
g11
g12
sg13
S'Weibei TC'
p415
sg15
I700
sg16
g12
sg17
g12
sg18
V/Library/Fonts/WeibeiTC-Bold.otf
p416
sg20
g21
sbag1
(g8
g3
NtRp417
(dp418
g11
g48
sg13
S'Akkurat Pro'
p419
sg15
I700
sg16
g12
sg17
g12
sg18
V/Users/adrianwan/Library/Fonts/AkkuratPro-BoldItalic.otf
p420
sg20
g21
sbag1
(g8
g3
NtRp421
(dp422
g11
g12
sg13
S'Hiragino Maru Gothic Pro'
p423
sg15
I400
sg16
g12
sg17
g12
sg18
V/Library/Fonts/\u30d2\u30e9\u30ad\u3099\u30ce\u4e38\u30b3\u3099 Pro W4.otf
p424
sg20
g21
sbag1
(g8
g3
NtRp425
(dp426
g11
g12
sg13
S'STHeiti'
p427
sg15
I400
sg16
g12
sg17
g12
sg18
V/Library/Fonts/\u534e\u6587\u7ec6\u9ed1.ttf
p428
sg20
g21
sbag1
(g8
g3
NtRp429
(dp430
g11
g12
sg13
S'PilGi'
p431
sg15
I400
sg16
g12
sg17
g12
sg18
V/Library/Fonts/Pilgiche.ttf
p432
sg20
g21
sbag1
(g8
g3
NtRp433
(dp434
g11
g12
sg13
S'Apple Braille'
p435
sg15
I400
sg16
g12
sg17
g12
sg18
V/System/Library/Fonts/Apple Braille Outline 8 Dot.ttf
p436
sg20
g21
sbag1
(g8
g3
NtRp437
(dp438
g11
g48
sg13
S'Roboto Condensed'
p439
sg15
I400
sg16
g12
sg17
g12
sg18
V/Library/Fonts/RobotoCondensed-Italic.ttf
p440
sg20
g21
sbag1
(g8
g3
NtRp441
(dp442
g11
g12
sg13
S'Plantagenet Cherokee'
p443
sg15
I400
sg16
g12
sg17
g12
sg18
V/Library/Fonts/PlantagenetCherokee.ttf
p444
sg20
g21
sbag1
(g8
g3
NtRp445
(dp446
g11
g12
sg13
S'Times New Roman'
p447
sg15
I700
sg16
g12
sg17
g12
sg18
V/Library/Fonts/Times New Roman Bold.ttf
p448
sg20
g21
sbag1
(g8
g3
NtRp449
(dp450
g11
g48
sg13
S'Arial'
p451
sg15
I700
sg16
g12
sg17
g12
sg18
V/Library/Fonts/Arial Bold Italic.ttf
p452
sg20
g21
sbag1
(g8
g3
NtRp453
(dp454
g11
g12
sg13
S'SignPainter'
p455
sg15
I400
sg16
g12
sg17
g12
sg18
V/Library/Fonts/SignPainter.otf
p456
sg20
g21
sbag1
(g8
g3
NtRp457
(dp458
g11
g12
sg13
S'Hiragino Kaku Gothic Pro'
p459
sg15
I400
sg16
g12
sg17
g12
sg18
V/Library/Fonts/\u30d2\u30e9\u30ad\u3099\u30ce\u89d2\u30b3\u3099 Pro W3.otf
p460
sg20
g21
sbag1
(g8
g3
NtRp461
(dp462
g11
g12
sg13
S'STIXVariants'
p463
sg15
I400
sg16
g12
sg17
g12
sg18
V/Library/Fonts/STIXVar.otf
p464
sg20
g21
sbag1
(g8
g3
NtRp465
(dp466
g11
g12
sg13
S'Mishafi'
p467
sg15
I400
sg16
g12
sg17
g12
sg18
V/Library/Fonts/Mishafi.ttf
p468
sg20
g21
sbag1
(g8
g3
NtRp469
(dp470
g11
g12
sg13
S'STIXVariants'
p471
sg15
I700
sg16
g12
sg17
g12
sg18
V/Library/Fonts/STIXVarBol.otf
p472
sg20
g21
sbag1
(g8
g3
NtRp473
(dp474
g11
g12
sg13
S'Hiragino Sans GB'
p475
sg15
I400
sg16
g12
sg17
g12
sg18
V/Library/Fonts/Hiragino Sans GB W3.otf
p476
sg20
g21
sbag1
(g8
g3
NtRp477
(dp478
g11
g12
sg13
S'STFangsong'
p479
sg15
I400
sg16
g12
sg17
g12
sg18
V/Library/Fonts/\u534e\u6587\u4eff\u5b8b.ttf
p480
sg20
g21
sbag1
(g8
g3
NtRp481
(dp482
g11
g12
sg13
S'Mshtakan'
p483
sg15
I700
sg16
g12
sg17
g12
sg18
V/Library/Fonts/MshtakanBold.ttf
p484
sg20
g21
sbag1
(g8
g3
NtRp485
(dp486
g11
g12
sg13
S'STHeiti'
p487
sg15
I400
sg16
g12
sg17
g12
sg18
V/Library/Fonts/\u534e\u6587\u9ed1\u4f53.ttf
p488
sg20
g21
sbag1
(g8
g3
NtRp489
(dp490
g11
g12
sg13
S'STIXIntegralsUp'
p491
sg15
I700
sg16
g12
sg17
g12
sg18
V/Library/Fonts/STIXIntUpBol.otf
p492
sg20
g21
sbag1
(g8
g3
NtRp493
(dp494
g11
g12
sg13
S'Wawati TC'
p495
sg15
I400
sg16
g12
sg17
g12
sg18
V/Library/Fonts/WawaTC-Regular.otf
p496
sg20
g21
sbag1
(g8
g3
NtRp497
(dp498
g11
g12
sg13
S'Skia'
p499
sg15
I400
sg16
g12
sg17
g12
sg18
V/Library/Fonts/Skia.ttf
p500
sg20
g21
sbag1
(g8
g3
NtRp501
(dp502
g11
g12
sg13
S'STIXSizeFiveSym'
p503
sg15
I400
sg16
g12
sg17
g12
sg18
V/Library/Fonts/STIXSizFiveSymReg.otf
p504
sg20
g21
sbag1
(g8
g3
NtRp505
(dp506
g11
g12
sg13
S'Verdana'
p507
sg15
I400
sg16
g12
sg17
g12
sg18
V/Library/Fonts/Verdana.ttf
p508
sg20
g21
sbag1
(g8
g3
NtRp509
(dp510
g11
g12
sg13
S'Farisi'
p511
sg15
I400
sg16
g12
sg17
g12
sg18
V/Library/Fonts/Farisi.ttf
p512
sg20
g21
sbag1
(g8
g3
NtRp513
(dp514
g11
g12
sg13
S'Roboto Slab'
p515
sg15
I700
sg16
g12
sg17
g12
sg18
V/Library/Fonts/RobotoSlab-Bold.ttf
p516
sg20
g21
sbag1
(g8
g3
NtRp517
(dp518
g11
g12
sg13
S'Gurmukhi MT'
p519
sg15
I400
sg16
g12
sg17
g12
sg18
V/Library/Fonts/Gurmukhi.ttf
p520
sg20
g21
sbag1
(g8
g3
NtRp521
(dp522
g11
g12
sg13
S'Bodoni 72 Smallcaps'
p523
sg15
I400
sg16
g12
sg17
g12
sg18
V/Library/Fonts/Bodoni 72 Smallcaps Book.ttf
p524
sg20
g21
sbag1
(g8
g3
NtRp525
(dp526
g11
g12
sg13
S'YuGothic'
p527
sg15
I700
sg16
g12
sg17
g12
sg18
V/Library/Fonts/Yu Gothic Bold.otf
p528
sg20
g21
sbag1
(g8
g3
NtRp529
(dp530
g11
g12
sg13
S'Apple Color Emoji'
p531
sg15
I400
sg16
g12
sg17
g12
sg18
V/System/Library/Fonts/Apple Color Emoji.ttf
p532
sg20
g21
sbag1
(g8
g3
NtRp533
(dp534
g11
g12
sg13
S'STIXSizeTwoSym'
p535
sg15
I400
sg16
g12
sg17
g12
sg18
V/Library/Fonts/STIXSizTwoSymReg.otf
p536
sg20
g21
sbag1
(g8
g3
NtRp537
(dp538
g11
g12
sg13
S'YuMincho'
p539
sg15
I700
sg16
g12
sg17
g12
sg18
V/Library/Fonts/Yu Mincho Demibold.otf
p540
sg20
g21
sbag1
(g8
g3
NtRp541
(dp542
g11
g12
sg13
S'Open Sans'
p543
sg15
I700
sg16
g12
sg17
g12
sg18
V/Library/Fonts/OpenSans-ExtraBold.ttf
p544
sg20
g21
sbag1
(g8
g3
NtRp545
(dp546
g11
g48
sg13
S'Open Sans'
p547
sg15
I200
sg16
g12
sg17
g12
sg18
V/Library/Fonts/OpenSans-LightItalic.ttf
p548
sg20
g21
sbag1
(g8
g3
NtRp549
(dp550
g11
g48
sg13
S'Arial'
p551
sg15
I400
sg16
g12
sg17
g12
sg18
V/Library/Fonts/Arial Italic.ttf
p552
sg20
g21
sbag1
(g8
g3
NtRp553
(dp554
g11
g12
sg13
S'Roboto Mono'
p555
sg15
I400
sg16
g12
sg17
g12
sg18
V/Library/Fonts/RobotoMono-Regular.ttf
p556
sg20
g21
sbag1
(g8
g3
NtRp557
(dp558
g11
g48
sg13
S'STIXNonUnicode'
p559
sg15
I700
sg16
g12
sg17
g12
sg18
V/Library/Fonts/STIXNonUniBolIta.otf
p560
sg20
g21
sbag1
(g8
g3
NtRp561
(dp562
g11
g12
sg13
S'Apple Braille'
p563
sg15
I400
sg16
g12
sg17
g12
sg18
V/System/Library/Fonts/Apple Braille Pinpoint 8 Dot.ttf
p564
sg20
g21
sbag1
(g8
g3
NtRp565
(dp566
g11
g48
sg13
S'Akkurat Pro'
p567
sg15
I200
sg16
g12
sg17
g12
sg18
V/Users/adrianwan/Library/Fonts/AkkuratPro-LightItalic.otf
p568
sg20
g21
sbag1
(g8
g3
NtRp569
(dp570
g11
g48
sg13
S'Georgia'
p571
sg15
I400
sg16
g12
sg17
g12
sg18
V/Library/Fonts/Georgia Italic.ttf
p572
sg20
g21
sbag1
(g8
g3
NtRp573
(dp574
g11
g12
sg13
S'Apple Braille'
p575
sg15
I400
sg16
g12
sg17
g12
sg18
V/System/Library/Fonts/Apple Braille Outline 6 Dot.ttf
p576
sg20
g21
sbag1
(g8
g3
NtRp577
(dp578
g11
g48
sg13
S'Open Sans'
p579
sg15
I700
sg16
g12
sg17
g12
sg18
V/Library/Fonts/OpenSans-BoldItalic.ttf
p580
sg20
g21
sbag1
(g8
g3
NtRp581
(dp582
g11
g48
sg13
S'Courier New'
p583
sg15
I700
sg16
g12
sg17
g12
sg18
V/Library/Fonts/Courier New Bold Italic.ttf
p584
sg20
g21
sbag1
(g8
g3
NtRp585
(dp586
g11
g12
sg13
S'Wawati SC'
p587
sg15
I400
sg16
g12
sg17
g12
sg18
V/Library/Fonts/WawaSC-Regular.otf
p588
sg20
g21
sbag1
(g8
g3
NtRp589
(dp590
g11
g12
sg13
S'Arial Rounded MT Bold'
p591
sg15
I700
sg16
g12
sg17
g12
sg18
V/Library/Fonts/Arial Rounded Bold.ttf
p592
sg20
g21
sbag1
(g8
g3
NtRp593
(dp594
g11
g48
sg13
S'Roboto Mono'
p595
sg15
I400
sg16
g12
sg17
g12
sg18
V/Library/Fonts/RobotoMono-Italic.ttf
p596
sg20
g21
sbag1
(g8
g3
NtRp597
(dp598
g11
g12
sg13
S'Hiragino Kaku Gothic Std'
p599
sg15
I700
sg16
g12
sg17
g12
sg18
V/Library/Fonts/\u30d2\u30e9\u30ad\u3099\u30ce\u89d2\u30b3\u3099 Std W8.otf
p600
sg20
g21
sbag1
(g8
g3
NtRp601
(dp602
g11
g12
sg13
S'Open Sans'
p603
sg15
I700
sg16
g12
sg17
g12
sg18
V/Library/Fonts/OpenSans-Semibold.ttf
p604
sg20
g21
sbag1
(g8
g3
NtRp605
(dp606
g11
g12
sg13
S'Hiragino Kaku Gothic ProN'
p607
sg15
I700
sg16
g12
sg17
g12
sg18
V/System/Library/Fonts/\u30d2\u30e9\u30ad\u3099\u30ce\u89d2\u30b3\u3099 ProN W6.otf
p608
sg20
g21
sbag1
(g8
g3
NtRp609
(dp610
g11
g12
sg13
S'PCMyungjo'
p611
sg15
I400
sg16
g12
sg17
g12
sg18
V/Library/Fonts/PCmyoungjo.ttf
p612
sg20
g21
sbag1
(g8
g3
NtRp613
(dp614
g11
g12
sg13
S'LastResort'
p615
sg15
I400
sg16
g12
sg17
g12
sg18
V/System/Library/Fonts/LastResort.ttf
p616
sg20
g21
sbag1
(g8
g3
NtRp617
(dp618
g11
g12
sg13
S'Apple SD Gothic Neo'
p619
sg15
I200
sg16
g12
sg17
g12
sg18
V/Library/Fonts/AppleSDGothicNeo-Light.otf
p620
sg20
g21
sbag1
(g8
g3
NtRp621
(dp622
g11
g48
sg13
S'Verdana'
p623
sg15
I700
sg16
g12
sg17
g12
sg18
V/Library/Fonts/Verdana Bold Italic.ttf
p624
sg20
g21
sbag1
(g8
g3
NtRp625
(dp626
g11
g12
sg13
S'LiHei Pro'
p627
sg15
I400
sg16
g12
sg17
g12
sg18
V/Library/Fonts/\u5137\u9ed1 Pro.ttf
p628
sg20
g21
sbag1
(g8
g3
NtRp629
(dp630
g11
g12
sg13
S'Hiragino Sans GB'
p631
sg15
I700
sg16
g12
sg17
g12
sg18
V/Library/Fonts/Hiragino Sans GB W6.otf
p632
sg20
g21
sbag1
(g8
g3
NtRp633
(dp634
g11
g48
sg13
S'Roboto Mono'
p635
sg15
I700
sg16
g12
sg17
g12
sg18
V/Library/Fonts/RobotoMono-BoldItalic.ttf
p636
sg20
g21
sbag1
(g8
g3
NtRp637
(dp638
g11
g12
sg13
S'Kailasa'
p639
sg15
I400
sg16
g12
sg17
g12
sg18
V/Library/Fonts/Kailasa.ttf
p640
sg20
g21
sbag1
(g8
g3
NtRp641
(dp642
g11
g12
sg13
S'STIXIntegralsSm'
p643
sg15
I400
sg16
g12
sg17
g12
sg18
V/Library/Fonts/STIXIntSmReg.otf
p644
sg20
g21
sbag1
(g8
g3
NtRp645
(dp646
g11
g12
sg13
S'Apple SD Gothic Neo'
p647
sg15
I400
sg16
g12
sg17
g12
sg18
V/Library/Fonts/AppleSDGothicNeo-Thin.otf
p648
sg20
g21
sbag1
(g8
g3
NtRp649
(dp650
g11
g12
sg13
S'Kokonor'
p651
sg15
I400
sg16
g12
sg17
g12
sg18
V/Library/Fonts/Kokonor.ttf
p652
sg20
g21
sbag1
(g8
g3
NtRp653
(dp654
g11
g48
sg13
S'Verdana'
p655
sg15
I400
sg16
g12
sg17
g12
sg18
V/Library/Fonts/Verdana Italic.ttf
p656
sg20
g21
sbag1
(g8
g3
NtRp657
(dp658
g11
g12
sg13
S'STIXGeneral'
p659
sg15
I700
sg16
g12
sg17
g12
sg18
V/Library/Fonts/STIXGeneralBol.otf
p660
sg20
g21
sbag1
(g8
g3
NtRp661
(dp662
g11
g12
sg13
S'Apple Braille'
p663
sg15
I400
sg16
g12
sg17
g12
sg18
V/System/Library/Fonts/Apple Braille.ttf
p664
sg20
g21
sbag1
(g8
g3
NtRp665
(dp666
g11
g12
sg13
S'Roboto Mono'
p667
sg15
I400
sg16
g12
sg17
g12
sg18
V/Library/Fonts/RobotoMono-Light.ttf
p668
sg20
g21
sbag1
(g8
g3
NtRp669
(dp670
g11
g12
sg13
S'InaiMathi'
p671
sg15
I400
sg16
g12
sg17
g12
sg18
V/Library/Fonts/InaiMathi.ttf
p672
sg20
g21
sbag1
(g8
g3
NtRp673
(dp674
g11
g48
sg13
S'Roboto'
p675
sg15
I400
sg16
g12
sg17
g12
sg18
V/Library/Fonts/Roboto-MediumItalic.ttf
p676
sg20
g21
sbag1
(g8
g3
NtRp677
(dp678
g11
g48
sg13
S'Trebuchet MS'
p679
sg15
I400
sg16
g12
sg17
g12
sg18
V/Library/Fonts/Trebuchet MS Italic.ttf
p680
sg20
g21
sbag1
(g8
g3
NtRp681
(dp682
g11
g48
sg13
S'Anonymous Pro'
p683
sg15
I400
sg16
g12
sg17
g12
sg18
V/Users/adrianwan/Library/Fonts/Anonymous Pro I.ttf
p684
sg20
g21
sbag1
(g8
g3
NtRp685
(dp686
g11
g12
sg13
S'STIXNonUnicode'
p687
sg15
I400
sg16
g12
sg17
g12
sg18
V/Library/Fonts/STIXNonUni.otf
p688
sg20
g21
sbag1
(g8
g3
NtRp689
(dp690
g11
g12
sg13
S'Open Sans'
p691
sg15
I200
sg16
g12
sg17
g12
sg18
V/Library/Fonts/OpenSans-Light.ttf
p692
sg20
g21
sbag1
(g8
g3
NtRp693
(dp694
g11
g48
sg13
S'Roboto Mono'
p695
sg15
I400
sg16
g12
sg17
g12
sg18
V/Library/Fonts/RobotoMono-LightItalic.ttf
p696
sg20
g21
sbag1
(g8
g3
NtRp697
(dp698
g11
g12
sg13
S'Roboto Slab'
p699
sg15
I400
sg16
g12
sg17
g12
sg18
V/Library/Fonts/RobotoSlab-Regular.ttf
p700
sg20
g21
sbag1
(g8
g3
NtRp701
(dp702
g11
g12
sg13
S'STIXIntegralsD'
p703
sg15
I400
sg16
g12
sg17
g12
sg18
V/Library/Fonts/STIXIntDReg.otf
p704
sg20
g21
sbag1
(g8
g3
NtRp705
(dp706
g11
g12
sg13
S'Roboto Mono'
p707
sg15
I400
sg16
g12
sg17
g12
sg18
V/Library/Fonts/RobotoMono-Thin.ttf
p708
sg20
g21
sbag1
(g8
g3
NtRp709
(dp710
g11
g48
sg13
S'Anonymous Pro'
p711
sg15
I700
sg16
g12
sg17
g12
sg18
V/Users/adrianwan/Library/Fonts/Anonymous Pro BI.ttf
p712
sg20
g21
sbag1
(g8
g3
NtRp713
(dp714
g11
g48
sg13
S'STIXNonUnicode'
p715
sg15
I400
sg16
g12
sg17
g12
sg18
V/Library/Fonts/STIXNonUniIta.otf
p716
sg20
g21
sbag1
(g8
g3
NtRp717
(dp718
g11
g12
sg13
S'STIXIntegralsUp'
p719
sg15
I400
sg16
g12
sg17
g12
sg18
V/Library/Fonts/STIXIntUpReg.otf
p720
sg20
g21
sbag1
(g8
g3
NtRp721
(dp722
g11
g12
sg13
S'Yuppy SC'
p723
sg15
I400
sg16
g12
sg17
g12
sg18
V/Library/Fonts/YuppySC-Regular.otf
p724
sg20
g21
sbag1
(g8
g3
NtRp725
(dp726
g11
g12
sg13
S'Comic Sans MS'
p727
sg15
I700
sg16
g12
sg17
g12
sg18
V/Library/Fonts/Comic Sans MS Bold.ttf
p728
sg20
g21
sbag1
(g8
g3
NtRp729
(dp730
g11
g12
sg13
S'Trebuchet MS'
p731
sg15
I400
sg16
g12
sg17
g12
sg18
V/Library/Fonts/Trebuchet MS.ttf
p732
sg20
g21
sbag1
(g8
g3
NtRp733
(dp734
g11
g12
sg13
S'Courier New'
p735
sg15
I700
sg16
g12
sg17
g12
sg18
V/Library/Fonts/Courier New Bold.ttf
p736
sg20
g21
sbag1
(g8
g3
NtRp737
(dp738
g11
g12
sg13
S'Big Caslon'
p739
sg15
I500
sg16
g12
sg17
g12
sg18
V/Library/Fonts/BigCaslon.ttf
p740
sg20
g21
sbag1
(g8
g3
NtRp741
(dp742
g11
g12
sg13
S'Roboto'
p743
sg15
I400
sg16
g12
sg17
g12
sg18
V/Library/Fonts/Roboto-Thin.ttf
p744
sg20
g21
sbag1
(g8
g3
NtRp745
(dp746
g11
g12
sg13
S'Roboto'
p747
sg15
I700
sg16
g12
sg17
g12
sg18
V/Library/Fonts/Roboto-Bold.ttf
p748
sg20
g21
sbag1
(g8
g3
NtRp749
(dp750
g11
g12
sg13
S'Ayuthaya'
p751
sg15
I400
sg16
g12
sg17
g12
sg18
V/Library/Fonts/Ayuthaya.ttf
p752
sg20
g21
sbag1
(g8
g3
NtRp753
(dp754
g11
g12
sg13
S'Apple SD Gothic Neo'
p755
sg15
I700
sg16
g12
sg17
g12
sg18
V/Library/Fonts/AppleSDGothicNeo-SemiBold.otf
p756
sg20
g21
sbag1
(g8
g3
NtRp757
(dp758
g11
g12
sg13
S'Herculanum'
p759
sg15
I400
sg16
g12
sg17
g12
sg18
V/Library/Fonts/Herculanum.ttf
p760
sg20
g21
sbag1
(g8
g3
NtRp761
(dp762
g11
g12
sg13
S'Webdings'
p763
sg15
I400
sg16
g12
sg17
g12
sg18
V/Library/Fonts/Webdings.ttf
p764
sg20
g21
sbag1
(g8
g3
NtRp765
(dp766
g11
g12
sg13
S'Apple Braille'
p767
sg15
I400
sg16
g12
sg17
g12
sg18
V/System/Library/Fonts/Apple Braille Pinpoint 6 Dot.ttf
p768
sg20
g21
sbag1
(g8
g3
NtRp769
(dp770
g11
g12
sg13
S'Hiragino Mincho ProN'
p771
sg15
I700
sg16
g12
sg17
g12
sg18
V/System/Library/Fonts/\u30d2\u30e9\u30ad\u3099\u30ce\u660e\u671d ProN W6.otf
p772
sg20
g21
sbag1
(g8
g3
NtRp773
(dp774
g11
g12
sg13
S'Symbol'
p775
sg15
I400
sg16
g12
sg17
g12
sg18
V/System/Library/Fonts/Symbol.ttf
p776
sg20
g21
sbag1
(g8
g3
NtRp777
(dp778
g11
g48
sg13
S'Trebuchet MS'
p779
sg15
I700
sg16
g12
sg17
g12
sg18
V/Library/Fonts/Trebuchet MS Bold Italic.ttf
p780
sg20
g21
sbag1
(g8
g3
NtRp781
(dp782
g11
g12
sg13
S'Open Sans'
p783
sg15
I700
sg16
g12
sg17
g12
sg18
V/Library/Fonts/OpenSans-Bold.ttf
p784
sg20
g21
sbag1
(g8
g3
NtRp785
(dp786
g11
g12
sg13
S'Wingdings 2'
p787
sg15
I400
sg16
g12
sg17
g12
sg18
V/Library/Fonts/Wingdings 2.ttf
p788
sg20
g21
sbag1
(g8
g3
NtRp789
(dp790
g11
g12
sg13
S'HeadLineA'
p791
sg15
I400
sg16
g12
sg17
g12
sg18
V/Library/Fonts/HeadlineA.ttf
p792
sg20
g21
sbag1
(g8
g3
NtRp793
(dp794
g11
g12
sg13
S'Tahoma'
p795
sg15
I400
sg16
g12
sg17
g12
sg18
V/Library/Fonts/Tahoma.ttf
p796
sg20
g21
sbag1
(g8
g3
NtRp797
(dp798
g11
g48
sg13
S'Brush Script MT'
p799
sg15
I400
sg16
g12
sg17
g12
sg18
V/Library/Fonts/Brush Script.ttf
p800
sg20
g21
sbag1
(g8
g3
NtRp801
(dp802
g11
g12
sg13
S'.Keyboard'
p803
sg15
I400
sg16
g12
sg17
g12
sg18
V/System/Library/Fonts/Keyboard.ttf
p804
sg20
g21
sbag1
(g8
g3
NtRp805
(dp806
g11
g12
sg13
S'Anonymous Pro'
p807
sg15
I400
sg16
g12
sg17
g12
sg18
V/Users/adrianwan/Library/Fonts/Anonymous Pro.ttf
p808
sg20
g21
sbag1
(g8
g3
NtRp809
(dp810
g11
g48
sg13
S'Akkurat Pro'
p811
sg15
I400
sg16
g12
sg17
g12
sg18
V/Users/adrianwan/Library/Fonts/AkkuratPro-RegularItalic.otf
p812
sg20
g21
sbag1
(g8
g3
NtRp813
(dp814
g11
g12
sg13
S'STIXSizeOneSym'
p815
sg15
I400
sg16
g12
sg17
g12
sg18
V/Library/Fonts/STIXSizOneSymReg.otf
p816
sg20
g21
sbag1
(g8
g3
NtRp817
(dp818
g11
g12
sg13
S'STIXIntegralsUpSm'
p819
sg15
I400
sg16
g12
sg17
g12
sg18
V/Library/Fonts/STIXIntUpSmReg.otf
p820
sg20
g21
sbag1
(g8
g3
NtRp821
(dp822
g11
g12
sg13
S'Andale Mono'
p823
sg15
I400
sg16
g12
sg17
g12
sg18
V/Library/Fonts/Andale Mono.ttf
p824
sg20
g21
sbag1
(g8
g3
NtRp825
(dp826
g11
g12
sg13
S'Khmer Sangam MN'
p827
sg15
I400
sg16
g12
sg17
g12
sg18
V/Library/Fonts/Khmer Sangam MN.ttf
p828
sg20
g21
sbag1
(g8
g3
NtRp829
(dp830
g11
g12
sg13
S'Roboto'
p831
sg15
I400
sg16
g12
sg17
g12
sg18
V/Library/Fonts/Roboto-Light.ttf
p832
sg20
g21
sbag1
(g8
g3
NtRp833
(dp834
g11
g12
sg13
S'Microsoft Sans Serif'
p835
sg15
I400
sg16
g12
sg17
g12
sg18
V/Library/Fonts/Microsoft Sans Serif.ttf
p836
sg20
g21
sbag1
(g8
g3
NtRp837
(dp838
g11
g12
sg13
S'Open Sans'
p839
sg15
I400
sg16
g12
sg17
g12
sg18
V/Library/Fonts/OpenSans-Regular.ttf
p840
sg20
g21
sbag1
(g8
g3
NtRp841
(dp842
g11
g12
sg13
S'STIXIntegralsUpD'
p843
sg15
I700
sg16
g12
sg17
g12
sg18
V/Library/Fonts/STIXIntUpDBol.otf
p844
sg20
g21
sbag1
(g8
g3
NtRp845
(dp846
g11
g12
sg13
S'.Hiragino Kaku Gothic Interface'
p847
sg15
I400
sg16
g12
sg17
g12
sg18
V/System/Library/Fonts/HiraKakuInterface-W2.otf
p848
sg20
g21
sbag1
(g8
g3
NtRp849
(dp850
g11
g12
sg13
S'STIXGeneral'
p851
sg15
I400
sg16
g12
sg17
g12
sg18
V/Library/Fonts/STIXGeneral.otf
p852
sg20
g21
sbag1
(g8
g3
NtRp853
(dp854
g11
g48
sg13
S'Courier New'
p855
sg15
I400
sg16
g12
sg17
g12
sg18
V/Library/Fonts/Courier New Italic.ttf
p856
sg20
g21
sbag1
(g8
g3
NtRp857
(dp858
g11
g12
sg13
S'Arial Black'
p859
sg15
I900
sg16
g12
sg17
g12
sg18
V/Library/Fonts/Arial Black.ttf
p860
sg20
g21
sbag1
(g8
g3
NtRp861
(dp862
g11
g48
sg13
S'STIXGeneral'
p863
sg15
I400
sg16
g12
sg17
g12
sg18
V/Library/Fonts/STIXGeneralItalic.otf
p864
sg20
g21
sbag1
(g8
g3
NtRp865
(dp866
g11
g12
sg13
S'Silom'
p867
sg15
I400
sg16
g12
sg17
g12
sg18
V/Library/Fonts/Silom.ttf
p868
sg20
g21
sbag1
(g8
g3
NtRp869
(dp870
g11
g12
sg13
S'Roboto Mono'
p871
sg15
I400
sg16
g12
sg17
g12
sg18
V/Library/Fonts/RobotoMono-Medium.ttf
p872
sg20
g21
sbag1
(g8
g3
NtRp873
(dp874
g11
g48
sg13
S'Open Sans'
p875
sg15
I700
sg16
g12
sg17
g12
sg18
V/Library/Fonts/OpenSans-SemiboldItalic.ttf
p876
sg20
g21
sbag1
(g8
g3
NtRp877
(dp878
g11
g12
sg13
S'Yuppy TC'
p879
sg15
I400
sg16
g12
sg17
g12
sg18
V/Library/Fonts/YuppyTC-Regular.otf
p880
sg20
g21
sbag1
(g8
g3
NtRp881
(dp882
g11
g12
sg13
S'Roboto Condensed'
p883
sg15
I700
sg16
g12
sg17
g12
sg18
V/Library/Fonts/RobotoCondensed-Bold.ttf
p884
sg20
g21
sbag1
(g8
g3
NtRp885
(dp886
g11
g12
sg13
S'STIXSizeFourSym'
p887
sg15
I400
sg16
g12
sg17
g12
sg18
V/Library/Fonts/STIXSizFourSymReg.otf
p888
sg20
g21
sbag1
(g8
g3
NtRp889
(dp890
g11
g12
sg13
S'Apple Chancery'
p891
sg15
I400
sg16
g12
sg17
g12
sg18
V/Library/Fonts/Apple Chancery.ttf
p892
sg20
g21
sbag1
(g8
g3
NtRp893
(dp894
g11
g12
sg13
S'Roboto Condensed'
p895
sg15
I400
sg16
g12
sg17
g12
sg18
V/Library/Fonts/RobotoCondensed-Light.ttf
p896
sg20
g21
sbag1
(g8
g3
NtRp897
(dp898
g11
g48
sg13
S'Roboto Mono'
p899
sg15
I400
sg16
g12
sg17
g12
sg18
V/Library/Fonts/RobotoMono-MediumItalic.ttf
p900
sg20
g21
sbag1
(g8
g3
NtRp901
(dp902
g11
g12
sg13
S'Wingdings 3'
p903
sg15
I400
sg16
g12
sg17
g12
sg18
V/Library/Fonts/Wingdings 3.ttf
p904
sg20
g21
sbag1
(g8
g3
NtRp905
(dp906
g11
g48
sg13
S'STIXGeneral'
p907
sg15
I700
sg16
g12
sg17
g12
sg18
V/Library/Fonts/STIXGeneralBolIta.otf
p908
sg20
g21
sbag1
(g8
g3
NtRp909
(dp910
g11
g12
sg13
S'Akkurat Pro'
p911
sg15
I400
sg16
g12
sg17
g12
sg18
V/Users/adrianwan/Library/Fonts/AkkuratPro-Regular.otf
p912
sg20
g21
sbag1
(g8
g3
NtRp913
(dp914
g11
g12
sg13
S'STIXIntegralsUpSm'
p915
sg15
I700
sg16
g12
sg17
g12
sg18
V/Library/Fonts/STIXIntUpSmBol.otf
p916
sg20
g21
sbag1
(g8
g3
NtRp917
(dp918
g11
g12
sg13
S'Lao Sangam MN'
p919
sg15
I400
sg16
g12
sg17
g12
sg18
V/Library/Fonts/Lao Sangam MN.ttf
p920
sg20
g21
sbag1
(g8
g3
NtRp921
(dp922
g11
g12
sg13
S'Trattatello'
p923
sg15
I400
sg16
g12
sg17
g12
sg18
V/Library/Fonts/Trattatello.ttf
p924
sg20
g21
sbag1
(g8
g3
NtRp925
(dp926
g11
g12
sg13
S'Roboto'
p927
sg15
I400
sg16
g12
sg17
g12
sg18
V/Library/Fonts/Roboto-Regular.ttf
p928
sg20
g21
sbag1
(g8
g3
NtRp929
(dp930
g11
g12
sg13
S'STIXSizeOneSym'
p931
sg15
I700
sg16
g12
sg17
g12
sg18
V/Library/Fonts/STIXSizOneSymBol.otf
p932
sg20
g21
sbag1
(g8
g3
NtRp933
(dp934
g11
g12
sg13
S'Comic Sans MS'
p935
sg15
I400
sg16
g12
sg17
g12
sg18
V/Library/Fonts/Comic Sans MS.ttf
p936
sg20
g21
sbag1
(g8
g3
NtRp937
(dp938
g11
g12
sg13
S'Roboto Condensed'
p939
sg15
I400
sg16
g12
sg17
g12
sg18
V/Library/Fonts/RobotoCondensed-Regular.ttf
p940
sg20
g21
sbag1
(g8
g3
NtRp941
(dp942
g11
g12
sg13
S'Bodoni Ornaments'
p943
sg15
I400
sg16
g12
sg17
g12
sg18
V/Library/Fonts/Bodoni Ornaments.ttf
p944
sg20
g21
sbag1
(g8
g3
NtRp945
(dp946
g11
g12
sg13
S'Weibei SC'
p947
sg15
I700
sg16
g12
sg17
g12
sg18
V/Library/Fonts/WeibeiSC-Bold.otf
p948
sg20
g21
sbag1
(g8
g3
NtRp949
(dp950
g11
g12
sg13
S'STIXSizeFourSym'
p951
sg15
I700
sg16
g12
sg17
g12
sg18
V/Library/Fonts/STIXSizFourSymBol.otf
p952
sg20
g21
sbag1
(g8
g3
NtRp953
(dp954
g11
g12
sg13
S'Arial'
p955
sg15
I700
sg16
g12
sg17
g12
sg18
V/Library/Fonts/Arial Bold.ttf
p956
sg20
g21
sbag1
(g8
g3
NtRp957
(dp958
g11
g12
sg13
S'Georgia'
p959
sg15
I700
sg16
g12
sg17
g12
sg18
V/Library/Fonts/Georgia Bold.ttf
p960
sg20
g21
sbag1
(g8
g3
NtRp961
(dp962
g11
g69
sg13
S'Mshtakan'
p963
sg15
I700
sg16
g12
sg17
g12
sg18
V/Library/Fonts/MshtakanBoldOblique.ttf
p964
sg20
g21
sbag1
(g8
g3
NtRp965
(dp966
g11
g12
sg13
S'Osaka'
p967
sg15
I400
sg16
g12
sg17
g12
sg18
V/Library/Fonts/OsakaMono.ttf
p968
sg20
g21
sbag1
(g8
g3
NtRp969
(dp970
g11
g12
sg13
S'GungSeo'
p971
sg15
I400
sg16
g12
sg17
g12
sg18
V/Library/Fonts/Gungseouche.ttf
p972
sg20
g21
sbag1
(g8
g3
NtRp973
(dp974
g11
g12
sg13
S'Apple SD Gothic Neo'
p975
sg15
I400
sg16
g12
sg17
g12
sg18
V/System/Library/Fonts/AppleSDGothicNeo-Regular.otf
p976
sg20
g21
sbag1
(g8
g3
NtRp977
(dp978
g11
g12
sg13
S'Roboto'
p979
sg15
I700
sg16
g12
sg17
g12
sg18
V/Library/Fonts/Roboto-Black.ttf
p980
sg20
g21
sbag1
(g8
g3
NtRp981
(dp982
g11
g12
sg13
S'STIXSizeTwoSym'
p983
sg15
I700
sg16
g12
sg17
g12
sg18
V/Library/Fonts/STIXSizTwoSymBol.otf
p984
sg20
g21
sbag1
(g8
g3
NtRp985
(dp986
g11
g12
sg13
S'Wingdings'
p987
sg15
I400
sg16
g12
sg17
g12
sg18
V/Library/Fonts/Wingdings.ttf
p988
sg20
g21
sbag1
(g8
g3
NtRp989
(dp990
g11
g12
sg13
S'Hiragino Kaku Gothic StdN'
p991
sg15
I700
sg16
g12
sg17
g12
sg18
V/Library/Fonts/\u30d2\u30e9\u30ad\u3099\u30ce\u89d2\u30b3\u3099 StdN W8.otf
p992
sg20
g21
sbag1
(g8
g3
NtRp993
(dp994
g11
g12
sg13
S'Impact'
p995
sg15
I400
sg16
g12
sg17
g12
sg18
V/Library/Fonts/Impact.ttf
p996
sg20
g21
sbag1
(g8
g3
NtRp997
(dp998
g11
g12
sg13
S'Tahoma'
p999
sg15
I700
sg16
g12
sg17
g12
sg18
V/Library/Fonts/Tahoma Bold.ttf
p1000
sg20
g21
sbag1
(g8
g3
NtRp1001
(dp1002
g11
g12
sg13
S'STIXNonUnicode'
p1003
sg15
I700
sg16
g12
sg17
g12
sg18
V/Library/Fonts/STIXNonUniBol.otf
p1004
sg20
g21
sbag1
(g8
g3
NtRp1005
(dp1006
g11
g48
sg13
S'Georgia'
p1007
sg15
I700
sg16
g12
sg17
g12
sg18
V/Library/Fonts/Georgia Bold Italic.ttf
p1008
sg20
g21
sbag1
(g8
g3
NtRp1009
(dp1010
g11
g12
sg13
S'STIXIntegralsUpD'
p1011
sg15
I400
sg16
g12
sg17
g12
sg18
V/Library/Fonts/STIXIntUpDReg.otf
p1012
sg20
g21
sbag1
(g8
g3
NtRp1013
(dp1014
g11
g12
sg13
S'Sathu'
p1015
sg15
I400
sg16
g12
sg17
g12
sg18
V/Library/Fonts/Sathu.ttf
p1016
sg20
g21
sbag1
(g8
g3
NtRp1017
(dp1018
g11
g12
sg13
S'Gujarati MT'
p1019
sg15
I400
sg16
g12
sg17
g12
sg18
V/Library/Fonts/GujaratiMT.ttf
p1020
sg20
g21
sbag1
(g8
g3
NtRp1021
(dp1022
g11
g48
sg13
S'Open Sans'
p1023
sg15
I700
sg16
g12
sg17
g12
sg18
V/Library/Fonts/OpenSans-ExtraBoldItalic.ttf
p1024
sg20
g21
sbag1
(g8
g3
NtRp1025
(dp1026
g11
g12
sg13
S'Apple SD Gothic Neo'
p1027
sg15
I500
sg16
g12
sg17
g12
sg18
V/Library/Fonts/AppleSDGothicNeo-Medium.otf
p1028
sg20
g21
sbag1
(g8
g3
NtRp1029
(dp1030
g11
g12
sg13
S'Anonymous Pro'
p1031
sg15
I700
sg16
g12
sg17
g12
sg18
V/Users/adrianwan/Library/Fonts/Anonymous Pro B.ttf
p1032
sg20
g21
sbasS'defaultFamily'
p1033
(dp1034
Vafm
p1035
VHelvetica
p1036
sVttf
p1037
VBitstream Vera Sans
p1038
ssS'ttffiles'
p1039
(lp1040
g19
ag25
ag29
ag33
ag37
ag41
ag45
ag50
ag54
ag58
ag62
ag66
ag71
ag75
ag79
ag83
ag87
ag91
ag95
ag99
ag103
ag107
ag111
ag115
ag119
ag123
ag127
ag131
ag135
ag139
ag143
ag147
ag151
ag155
ag159
ag163
ag167
ag171
ag175
ag179
ag183
ag187
ag191
ag195
ag199
ag203
ag207
ag211
ag216
ag220
ag224
ag228
ag232
ag236
ag240
ag244
ag248
ag252
ag256
ag260
ag264
aV/Library/Fonts/NISC18030.ttf
p1041
ag268
ag272
ag276
ag280
ag284
ag288
ag292
ag296
ag300
ag304
ag308
ag312
ag316
ag320
ag324
ag328
ag332
ag336
ag340
ag344
ag348
ag352
ag356
ag360
ag364
ag368
ag372
ag376
ag380
ag384
ag388
ag392
ag396
ag400
ag404
ag408
ag412
ag416
ag420
ag424
ag428
ag432
ag436
ag440
ag444
ag448
ag452
ag456
ag460
ag464
ag468
ag472
ag476
ag480
ag484
ag488
ag492
ag496
ag500
ag504
ag508
ag512
ag516
ag520
ag524
ag528
ag532
ag536
ag540
ag544
ag548
ag552
ag556
ag560
ag564
ag568
ag572
ag576
ag580
ag584
ag588
ag592
ag596
ag600
ag604
ag608
ag612
ag616
ag620
ag624
ag628
ag632
ag636
ag640
ag644
ag648
ag652
ag656
ag660
ag664
ag668
ag672
ag676
ag680
ag684
ag688
ag692
ag696
ag700
ag704
ag708
ag712
ag716
ag720
ag724
ag728
ag732
ag736
ag740
ag744
ag748
ag752
ag756
ag760
ag764
ag768
ag772
ag776
ag780
ag784
ag788
ag792
ag796
ag800
ag804
ag808
ag812
ag816
ag820
ag824
ag828
ag832
ag836
ag840
ag844
ag848
ag852
ag856
ag860
ag864
ag868
ag872
ag876
ag880
ag884
ag888
ag892
ag896
ag900
ag904
ag908
ag912
ag916
ag920
ag924
ag928
ag932
ag936
ag940
ag944
ag948
ag952
ag956
ag960
ag964
ag968
ag972
ag976
ag980
ag984
ag988
ag992
ag996
ag1000
ag1004
ag1008
ag1012
ag1016
ag1020
ag1024
ag1028
ag1032
asS'_FontManager__default_weight'
p1042
Vnormal
p1043
sS'_version'
p1044
I101
sS'default_size'
p1045
NsS'defaultFont'
p1046
(dp1047
g1035
V/usr/local/nest-python-2.7.8-Darwin-x86_64-20140826/Python.framework/Versions/2.7/lib/python2.7/site-packages/matplotlib/mpl-data/fonts/pdfcorefonts/Times-Roman.afm
p1048
sg1037
g127
ssS'afmfiles'
p1049
(lp1050
g1048
aV/usr/local/nest-python-2.7.8-Darwin-x86_64-20140826/Python.framework/Versions/2.7/lib/python2.7/site-packages/matplotlib/mpl-data/fonts/afm/cmr10.afm
p1051
aV/usr/local/nest-python-2.7.8-Darwin-x86_64-20140826/Python.framework/Versions/2.7/lib/python2.7/site-packages/matplotlib/mpl-data/fonts/afm/pbkli8a.afm
p1052
aV/usr/local/nest-python-2.7.8-Darwin-x86_64-20140826/Python.framework/Versions/2.7/lib/python2.7/site-packages/matplotlib/mpl-data/fonts/pdfcorefonts/Helvetica-Bold.afm
p1053
aV/usr/local/nest-python-2.7.8-Darwin-x86_64-20140826/Python.framework/Versions/2.7/lib/python2.7/site-packages/matplotlib/mpl-data/fonts/pdfcorefonts/Symbol.afm
p1054
aV/usr/local/nest-python-2.7.8-Darwin-x86_64-20140826/Python.framework/Versions/2.7/lib/python2.7/site-packages/matplotlib/mpl-data/fonts/afm/pzdr.afm
p1055
aV/usr/local/nest-python-2.7.8-Darwin-x86_64-20140826/Python.framework/Versions/2.7/lib/python2.7/site-packages/matplotlib/mpl-data/fonts/afm/psyr.afm
p1056
aV/usr/local/nest-python-2.7.8-Darwin-x86_64-20140826/Python.framework/Versions/2.7/lib/python2.7/site-packages/matplotlib/mpl-data/fonts/afm/pcrb8a.afm
p1057
aV/usr/local/nest-python-2.7.8-Darwin-x86_64-20140826/Python.framework/Versions/2.7/lib/python2.7/site-packages/matplotlib/mpl-data/fonts/afm/pagdo8a.afm
p1058
aV/usr/local/nest-python-2.7.8-Darwin-x86_64-20140826/Python.framework/Versions/2.7/lib/python2.7/site-packages/matplotlib/mpl-data/fonts/pdfcorefonts/Courier-BoldOblique.afm
p1059
aV/usr/local/nest-python-2.7.8-Darwin-x86_64-20140826/Python.framework/Versions/2.7/lib/python2.7/site-packages/matplotlib/mpl-data/fonts/afm/cmex10.afm
p1060
aV/usr/local/nest-python-2.7.8-Darwin-x86_64-20140826/Python.framework/Versions/2.7/lib/python2.7/site-packages/matplotlib/mpl-data/fonts/afm/pbkd8a.afm
p1061
aV/usr/local/nest-python-2.7.8-Darwin-x86_64-20140826/Python.framework/Versions/2.7/lib/python2.7/site-packages/matplotlib/mpl-data/fonts/afm/cmsy10.afm
p1062
aV/usr/local/nest-python-2.7.8-Darwin-x86_64-20140826/Python.framework/Versions/2.7/lib/python2.7/site-packages/matplotlib/mpl-data/fonts/afm/phvro8an.afm
p1063
aV/usr/local/nest-python-2.7.8-Darwin-x86_64-20140826/Python.framework/Versions/2.7/lib/python2.7/site-packages/matplotlib/mpl-data/fonts/afm/phvbo8a.afm
p1064
aV/usr/local/nest-python-2.7.8-Darwin-x86_64-20140826/Python.framework/Versions/2.7/lib/python2.7/site-packages/matplotlib/mpl-data/fonts/pdfcorefonts/Courier.afm
p1065
aV/usr/local/nest-python-2.7.8-Darwin-x86_64-20140826/Python.framework/Versions/2.7/lib/python2.7/site-packages/matplotlib/mpl-data/fonts/afm/pcrr8a.afm
p1066
aV/usr/local/nest-python-2.7.8-Darwin-x86_64-20140826/Python.framework/Versions/2.7/lib/python2.7/site-packages/matplotlib/mpl-data/fonts/afm/ptmbi8a.afm
p1067
aV/usr/local/nest-python-2.7.8-Darwin-x86_64-20140826/Python.framework/Versions/2.7/lib/python2.7/site-packages/matplotlib/mpl-data/fonts/afm/pplr8a.afm
p1068
aV/usr/local/nest-python-2.7.8-Darwin-x86_64-20140826/Python.framework/Versions/2.7/lib/python2.7/site-packages/matplotlib/mpl-data/fonts/pdfcorefonts/Helvetica.afm
p1069
aV/usr/local/nest-python-2.7.8-Darwin-x86_64-20140826/Python.framework/Versions/2.7/lib/python2.7/site-packages/matplotlib/mpl-data/fonts/afm/pplri8a.afm
p1070
aV/usr/local/nest-python-2.7.8-Darwin-x86_64-20140826/Python.framework/Versions/2.7/lib/python2.7/site-packages/matplotlib/mpl-data/fonts/pdfcorefonts/Courier-Bold.afm
p1071
aV/usr/local/nest-python-2.7.8-Darwin-x86_64-20140826/Python.framework/Versions/2.7/lib/python2.7/site-packages/matplotlib/mpl-data/fonts/afm/phvr8an.afm
p1072
aV/usr/local/nest-python-2.7.8-Darwin-x86_64-20140826/Python.framework/Versions/2.7/lib/python2.7/site-packages/matplotlib/mpl-data/fonts/afm/phvro8a.afm
p1073
aV/usr/local/nest-python-2.7.8-Darwin-x86_64-20140826/Python.framework/Versions/2.7/lib/python2.7/site-packages/matplotlib/mpl-data/fonts/afm/pagko8a.afm
p1074
aV/usr/local/nest-python-2.7.8-Darwin-x86_64-20140826/Python.framework/Versions/2.7/lib/python2.7/site-packages/matplotlib/mpl-data/fonts/afm/pncri8a.afm
p1075
aV/usr/local/nest-python-2.7.8-Darwin-x86_64-20140826/Python.framework/Versions/2.7/lib/python2.7/site-packages/matplotlib/mpl-data/fonts/afm/pcrbo8a.afm
p1076
aV/usr/local/nest-python-2.7.8-Darwin-x86_64-20140826/Python.framework/Versions/2.7/lib/python2.7/site-packages/matplotlib/mpl-data/fonts/afm/putr8a.afm
p1077
aV/usr/local/nest-python-2.7.8-Darwin-x86_64-20140826/Python.framework/Versions/2.7/lib/python2.7/site-packages/matplotlib/mpl-data/fonts/afm/phvlo8a.afm
p1078
aV/usr/local/nest-python-2.7.8-Darwin-x86_64-20140826/Python.framework/Versions/2.7/lib/python2.7/site-packages/matplotlib/mpl-data/fonts/afm/putri8a.afm
p1079
aV/usr/local/nest-python-2.7.8-Darwin-x86_64-20140826/Python.framework/Versions/2.7/lib/python2.7/site-packages/matplotlib/mpl-data/fonts/afm/pbkl8a.afm
p1080
aV/usr/local/nest-python-2.7.8-Darwin-x86_64-20140826/Python.framework/Versions/2.7/lib/python2.7/site-packages/matplotlib/mpl-data/fonts/afm/pncbi8a.afm
p1081
aV/usr/local/nest-python-2.7.8-Darwin-x86_64-20140826/Python.framework/Versions/2.7/lib/python2.7/site-packages/matplotlib/mpl-data/fonts/pdfcorefonts/Times-Italic.afm
p1082
aV/usr/local/nest-python-2.7.8-Darwin-x86_64-20140826/Python.framework/Versions/2.7/lib/python2.7/site-packages/matplotlib/mpl-data/fonts/pdfcorefonts/ZapfDingbats.afm
p1083
aV/usr/local/nest-python-2.7.8-Darwin-x86_64-20140826/Python.framework/Versions/2.7/lib/python2.7/site-packages/matplotlib/mpl-data/fonts/afm/ptmr8a.afm
p1084
aV/usr/local/nest-python-2.7.8-Darwin-x86_64-20140826/Python.framework/Versions/2.7/lib/python2.7/site-packages/matplotlib/mpl-data/fonts/pdfcorefonts/Times-BoldItalic.afm
p1085
aV/usr/local/nest-python-2.7.8-Darwin-x86_64-20140826/Python.framework/Versions/2.7/lib/python2.7/site-packages/matplotlib/mpl-data/fonts/afm/putbi8a.afm
p1086
aV/usr/local/nest-python-2.7.8-Darwin-x86_64-20140826/Python.framework/Versions/2.7/lib/python2.7/site-packages/matplotlib/mpl-data/fonts/afm/ptmb8a.afm
p1087
aV/usr/local/nest-python-2.7.8-Darwin-x86_64-20140826/Python.framework/Versions/2.7/lib/python2.7/site-packages/matplotlib/mpl-data/fonts/pdfcorefonts/Helvetica-BoldOblique.afm
p1088
aV/usr/local/nest-python-2.7.8-Darwin-x86_64-20140826/Python.framework/Versions/2.7/lib/python2.7/site-packages/matplotlib/mpl-data/fonts/afm/pplbi8a.afm
p1089
aV/usr/local/nest-python-2.7.8-Darwin-x86_64-20140826/Python.framework/Versions/2.7/lib/python2.7/site-packages/matplotlib/mpl-data/fonts/afm/phvb8an.afm
p1090
aV/usr/local/nest-python-2.7.8-Darwin-x86_64-20140826/Python.framework/Versions/2.7/lib/python2.7/site-packages/matplotlib/mpl-data/fonts/pdfcorefonts/Helvetica-Oblique.afm
p1091
aV/usr/local/nest-python-2.7.8-Darwin-x86_64-20140826/Python.framework/Versions/2.7/lib/python2.7/site-packages/matplotlib/mpl-data/fonts/afm/pbkdi8a.afm
p1092
aV/usr/local/nest-python-2.7.8-Darwin-x86_64-20140826/Python.framework/Versions/2.7/lib/python2.7/site-packages/matplotlib/mpl-data/fonts/afm/phvr8a.afm
p1093
aV/usr/local/nest-python-2.7.8-Darwin-x86_64-20140826/Python.framework/Versions/2.7/lib/python2.7/site-packages/matplotlib/mpl-data/fonts/afm/cmtt10.afm
p1094
aV/usr/local/nest-python-2.7.8-Darwin-x86_64-20140826/Python.framework/Versions/2.7/lib/python2.7/site-packages/matplotlib/mpl-data/fonts/afm/pagd8a.afm
p1095
aV/usr/local/nest-python-2.7.8-Darwin-x86_64-20140826/Python.framework/Versions/2.7/lib/python2.7/site-packages/matplotlib/mpl-data/fonts/afm/pagk8a.afm
p1096
aV/usr/local/nest-python-2.7.8-Darwin-x86_64-20140826/Python.framework/Versions/2.7/lib/python2.7/site-packages/matplotlib/mpl-data/fonts/afm/cmmi10.afm
p1097
aV/usr/local/nest-python-2.7.8-Darwin-x86_64-20140826/Python.framework/Versions/2.7/lib/python2.7/site-packages/matplotlib/mpl-data/fonts/afm/pcrro8a.afm
p1098
aV/usr/local/nest-python-2.7.8-Darwin-x86_64-20140826/Python.framework/Versions/2.7/lib/python2.7/site-packages/matplotlib/mpl-data/fonts/afm/phvbo8an.afm
p1099
aV/usr/local/nest-python-2.7.8-Darwin-x86_64-20140826/Python.framework/Versions/2.7/lib/python2.7/site-packages/matplotlib/mpl-data/fonts/afm/pzcmi8a.afm
p1100
aV/usr/local/nest-python-2.7.8-Darwin-x86_64-20140826/Python.framework/Versions/2.7/lib/python2.7/site-packages/matplotlib/mpl-data/fonts/afm/phvb8a.afm
p1101
aV/usr/local/nest-python-2.7.8-Darwin-x86_64-20140826/Python.framework/Versions/2.7/lib/python2.7/site-packages/matplotlib/mpl-data/fonts/afm/ptmri8a.afm
p1102
aV/usr/local/nest-python-2.7.8-Darwin-x86_64-20140826/Python.framework/Versions/2.7/lib/python2.7/site-packages/matplotlib/mpl-data/fonts/pdfcorefonts/Courier-Oblique.afm
p1103
aV/usr/local/nest-python-2.7.8-Darwin-x86_64-20140826/Python.framework/Versions/2.7/lib/python2.7/site-packages/matplotlib/mpl-data/fonts/afm/pncb8a.afm
p1104
aV/usr/local/nest-python-2.7.8-Darwin-x86_64-20140826/Python.framework/Versions/2.7/lib/python2.7/site-packages/matplotlib/mpl-data/fonts/afm/pplb8a.afm
p1105
aV/usr/local/nest-python-2.7.8-Darwin-x86_64-20140826/Python.framework/Versions/2.7/lib/python2.7/site-packages/matplotlib/mpl-data/fonts/afm/pncr8a.afm
p1106
aV/usr/local/nest-python-2.7.8-Darwin-x86_64-20140826/Python.framework/Versions/2.7/lib/python2.7/site-packages/matplotlib/mpl-data/fonts/afm/putb8a.afm
p1107
aV/usr/local/nest-python-2.7.8-Darwin-x86_64-20140826/Python.framework/Versions/2.7/lib/python2.7/site-packages/matplotlib/mpl-data/fonts/afm/phvl8a.afm
p1108
aV/usr/local/nest-python-2.7.8-Darwin-x86_64-20140826/Python.framework/Versions/2.7/lib/python2.7/site-packages/matplotlib/mpl-data/fonts/pdfcorefonts/Times-Bold.afm
p1109
asS'afmlist'
p1110
(lp1111
g1
(g8
g3
NtRp1112
(dp1113
g11
Vnormal
p1114
sg13
S'Times'
p1115
sg15
I500
sg16
g1114
sg17
g1114
sg18
g1048
sg20
Vscalable
p1116
sbag1
(g8
g3
NtRp1117
(dp1118
g11
g1114
sg13
S'Computer Modern'
p1119
sg15
I500
sg16
g1114
sg17
g1114
sg18
g1051
sg20
g1116
sbag1
(g8
g3
NtRp1120
(dp1121
g11
Vitalic
p1122
sg13
S'ITC Bookman'
p1123
sg15
I200
sg16
g1114
sg17
g1114
sg18
g1052
sg20
g1116
sbag1
(g8
g3
NtRp1124
(dp1125
g11
g1114
sg13
S'Helvetica'
p1126
sg15
I700
sg16
g1114
sg17
g1114
sg18
g1053
sg20
g1116
sbag1
(g8
g3
NtRp1127
(dp1128
g11
g1114
sg13
S'Symbol'
p1129
sg15
I500
sg16
g1114
sg17
g1114
sg18
g1054
sg20
g1116
sbag1
(g8
g3
NtRp1130
(dp1131
g11
g1114
sg13
S'ITC Zapf Dingbats'
p1132
sg15
I500
sg16
g1114
sg17
g1114
sg18
g1055
sg20
g1116
sbag1
(g8
g3
NtRp1133
(dp1134
g11
g1114
sg13
S'Symbol'
p1135
sg15
I500
sg16
g1114
sg17
g1114
sg18
g1056
sg20
g1116
sbag1
(g8
g3
NtRp1136
(dp1137
g11
g1114
sg13
S'Courier'
p1138
sg15
I700
sg16
g1114
sg17
g1114
sg18
g1057
sg20
g1116
sbag1
(g8
g3
NtRp1139
(dp1140
g11
g1122
sg13
S'ITC Avant Garde Gothic'
p1141
sg15
I600
sg16
g1114
sg17
g1114
sg18
g1058
sg20
g1116
sbag1
(g8
g3
NtRp1142
(dp1143
g11
g1122
sg13
S'Courier'
p1144
sg15
I700
sg16
g1114
sg17
g1114
sg18
g1059
sg20
g1116
sbag1
(g8
g3
NtRp1145
(dp1146
g11
g1114
sg13
S'Computer Modern'
p1147
sg15
I500
sg16
g1114
sg17
g1114
sg18
g1060
sg20
g1116
sbag1
(g8
g3
NtRp1148
(dp1149
g11
g1114
sg13
S'ITC Bookman'
p1150
sg15
I600
sg16
g1114
sg17
g1114
sg18
g1061
sg20
g1116
sbag1
(g8
g3
NtRp1151
(dp1152
g11
g1122
sg13
S'Computer Modern'
p1153
sg15
I500
sg16
g1114
sg17
g1114
sg18
g1062
sg20
g1116
sbag1
(g8
g3
NtRp1154
(dp1155
g11
g1122
sg13
S'Helvetica'
p1156
sg15
I500
sg16
Vcondensed
p1157
sg17
g1114
sg18
g1063
sg20
g1116
sbag1
(g8
g3
NtRp1158
(dp1159
g11
g1122
sg13
S'Helvetica'
p1160
sg15
I700
sg16
g1114
sg17
g1114
sg18
g1064
sg20
g1116
sbag1
(g8
g3
NtRp1161
(dp1162
g11
g1114
sg13
S'Courier'
p1163
sg15
I500
sg16
g1114
sg17
g1114
sg18
g1065
sg20
g1116
sbag1
(g8
g3
NtRp1164
(dp1165
g11
g1114
sg13
S'Courier'
p1166
sg15
I500
sg16
g1114
sg17
g1114
sg18
g1066
sg20
g1116
sbag1
(g8
g3
NtRp1167
(dp1168
g11
g1122
sg13
S'Times'
p1169
sg15
I700
sg16
g1114
sg17
g1114
sg18
g1067
sg20
g1116
sbag1
(g8
g3
NtRp1170
(dp1171
g11
g1114
sg13
S'Palatino'
p1172
sg15
I500
sg16
g1114
sg17
g1114
sg18
g1068
sg20
g1116
sbag1
(g8
g3
NtRp1173
(dp1174
g11
g1114
sg13
S'Helvetica'
p1175
sg15
I500
sg16
g1114
sg17
g1114
sg18
g1069
sg20
g1116
sbag1
(g8
g3
NtRp1176
(dp1177
g11
g1122
sg13
S'Palatino'
p1178
sg15
I500
sg16
g1114
sg17
g1114
sg18
g1070
sg20
g1116
sbag1
(g8
g3
NtRp1179
(dp1180
g11
g1114
sg13
S'Courier'
p1181
sg15
I700
sg16
g1114
sg17
g1114
sg18
g1071
sg20
g1116
sbag1
(g8
g3
NtRp1182
(dp1183
g11
g1114
sg13
S'Helvetica'
p1184
sg15
I500
sg16
g1157
sg17
g1114
sg18
g1072
sg20
g1116
sbag1
(g8
g3
NtRp1185
(dp1186
g11
g1122
sg13
S'Helvetica'
p1187
sg15
I500
sg16
g1114
sg17
g1114
sg18
g1073
sg20
g1116
sbag1
(g8
g3
NtRp1188
(dp1189
g11
g1122
sg13
S'ITC Avant Garde Gothic'
p1190
sg15
I400
sg16
g1114
sg17
g1114
sg18
g1074
sg20
g1116
sbag1
(g8
g3
NtRp1191
(dp1192
g11
g1122
sg13
S'New Century Schoolbook'
p1193
sg15
I500
sg16
g1114
sg17
g1114
sg18
g1075
sg20
g1116
sbag1
(g8
g3
NtRp1194
(dp1195
g11
g1122
sg13
S'Courier'
p1196
sg15
I700
sg16
g1114
sg17
g1114
sg18
g1076
sg20
g1116
sbag1
(g8
g3
NtRp1197
(dp1198
g11
g1114
sg13
S'Utopia'
p1199
sg15
I400
sg16
g1114
sg17
g1114
sg18
g1077
sg20
g1116
sbag1
(g8
g3
NtRp1200
(dp1201
g11
g1122
sg13
S'Helvetica'
p1202
sg15
I200
sg16
g1114
sg17
g1114
sg18
g1078
sg20
g1116
sbag1
(g8
g3
NtRp1203
(dp1204
g11
g1122
sg13
S'Utopia'
p1205
sg15
I400
sg16
g1114
sg17
g1114
sg18
g1079
sg20
g1116
sbag1
(g8
g3
NtRp1206
(dp1207
g11
g1114
sg13
S'ITC Bookman'
p1208
sg15
I200
sg16
g1114
sg17
g1114
sg18
g1080
sg20
g1116
sbag1
(g8
g3
NtRp1209
(dp1210
g11
g1122
sg13
S'New Century Schoolbook'
p1211
sg15
I700
sg16
g1114
sg17
g1114
sg18
g1081
sg20
g1116
sbag1
(g8
g3
NtRp1212
(dp1213
g11
g1122
sg13
S'Times'
p1214
sg15
I500
sg16
g1114
sg17
g1114
sg18
g1082
sg20
g1116
sbag1
(g8
g3
NtRp1215
(dp1216
g11
g1114
sg13
S'ZapfDingbats'
p1217
sg15
I500
sg16
g1114
sg17
g1114
sg18
g1083
sg20
g1116
sbag1
(g8
g3
NtRp1218
(dp1219
g11
g1114
sg13
S'Times'
p1220
sg15
I500
sg16
g1114
sg17
g1114
sg18
g1084
sg20
g1116
sbag1
(g8
g3
NtRp1221
(dp1222
g11
g1122
sg13
S'Times'
p1223
sg15
I700
sg16
g1114
sg17
g1114
sg18
g1085
sg20
g1116
sbag1
(g8
g3
NtRp1224
(dp1225
g11
g1122
sg13
S'Utopia'
p1226
sg15
I700
sg16
g1114
sg17
g1114
sg18
g1086
sg20
g1116
sbag1
(g8
g3
NtRp1227
(dp1228
g11
g1114
sg13
S'Times'
p1229
sg15
I700
sg16
g1114
sg17
g1114
sg18
g1087
sg20
g1116
sbag1
(g8
g3
NtRp1230
(dp1231
g11
g1122
sg13
S'Helvetica'
p1232
sg15
I700
sg16
g1114
sg17
g1114
sg18
g1088
sg20
g1116
sbag1
(g8
g3
NtRp1233
(dp1234
g11
g1122
sg13
S'Palatino'
p1235
sg15
I700
sg16
g1114
sg17
g1114
sg18
g1089
sg20
g1116
sbag1
(g8
g3
NtRp1236
(dp1237
g11
g1114
sg13
S'Helvetica'
p1238
sg15
I700
sg16
g1157
sg17
g1114
sg18
g1090
sg20
g1116
sbag1
(g8
g3
NtRp1239
(dp1240
g11
g1122
sg13
S'Helvetica'
p1241
sg15
I500
sg16
g1114
sg17
g1114
sg18
g1091
sg20
g1116
sbag1
(g8
g3
NtRp1242
(dp1243
g11
g1122
sg13
S'ITC Bookman'
p1244
sg15
I600
sg16
g1114
sg17
g1114
sg18
g1092
sg20
g1116
sbag1
(g8
g3
NtRp1245
(dp1246
g11
g1114
sg13
S'Helvetica'
p1247
sg15
I500
sg16
g1114
sg17
g1114
sg18
g1093
sg20
g1116
sbag1
(g8
g3
NtRp1248
(dp1249
g11
g1114
sg13
S'Computer Modern'
p1250
sg15
I500
sg16
g1114
sg17
g1114
sg18
g1094
sg20
g1116
sbag1
(g8
g3
NtRp1251
(dp1252
g11
g1114
sg13
S'ITC Avant Garde Gothic'
p1253
sg15
I600
sg16
g1114
sg17
g1114
sg18
g1095
sg20
g1116
sbag1
(g8
g3
NtRp1254
(dp1255
g11
g1114
sg13
S'ITC Avant Garde Gothic'
p1256
sg15
I400
sg16
g1114
sg17
g1114
sg18
g1096
sg20
g1116
sbag1
(g8
g3
NtRp1257
(dp1258
g11
g1122
sg13
S'Computer Modern'
p1259
sg15
I500
sg16
g1114
sg17
g1114
sg18
g1097
sg20
g1116
sbag1
(g8
g3
NtRp1260
(dp1261
g11
g1122
sg13
S'Courier'
p1262
sg15
I500
sg16
g1114
sg17
g1114
sg18
g1098
sg20
g1116
sbag1
(g8
g3
NtRp1263
(dp1264
g11
g1122
sg13
S'Helvetica'
p1265
sg15
I700
sg16
g1157
sg17
g1114
sg18
g1099
sg20
g1116
sbag1
(g8
g3
NtRp1266
(dp1267
g11
g1122
sg13
S'ITC Zapf Chancery'
p1268
sg15
I500
sg16
g1114
sg17
g1114
sg18
g1100
sg20
g1116
sbag1
(g8
g3
NtRp1269
(dp1270
g11
g1114
sg13
S'Helvetica'
p1271
sg15
I700
sg16
g1114
sg17
g1114
sg18
g1101
sg20
g1116
sbag1
(g8
g3
NtRp1272
(dp1273
g11
g1122
sg13
S'Times'
p1274
sg15
I500
sg16
g1114
sg17
g1114
sg18
g1102
sg20
g1116
sbag1
(g8
g3
NtRp1275
(dp1276
g11
g1122
sg13
S'Courier'
p1277
sg15
I500
sg16
g1114
sg17
g1114
sg18
g1103
sg20
g1116
sbag1
(g8
g3
NtRp1278
(dp1279
g11
g1114
sg13
S'New Century Schoolbook'
p1280
sg15
I700
sg16
g1114
sg17
g1114
sg18
g1104
sg20
g1116
sbag1
(g8
g3
NtRp1281
(dp1282
g11
g1114
sg13
S'Palatino'
p1283
sg15
I700
sg16
g1114
sg17
g1114
sg18
g1105
sg20
g1116
sbag1
(g8
g3
NtRp1284
(dp1285
g11
g1114
sg13
S'New Century Schoolbook'
p1286
sg15
I500
sg16
g1114
sg17
g1114
sg18
g1106
sg20
g1116
sbag1
(g8
g3
NtRp1287
(dp1288
g11
g1114
sg13
S'Utopia'
p1289
sg15
I700
sg16
g1114
sg17
g1114
sg18
g1107
sg20
g1116
sbag1
(g8
g3
NtRp1290
(dp1291
g11
g1114
sg13
S'Helvetica'
p1292
sg15
I200
sg16
g1114
sg17
g1114
sg18
g1108
sg20
g1116
sbag1
(g8
g3
NtRp1293
(dp1294
g11
g1114
sg13
S'Times'
p1295
sg15
I700
sg16
g1114
sg17
g1114
sg18
g1109
sg20
g1116
sbasb.